
kernel.elf:     file format elf32-littlearm


Disassembly of section .text:

00008000 <_start>:
    8000:	e59ff018 	ldr	pc, [pc, #24]	; 8020 <reset_handler>
    8004:	e59ff018 	ldr	pc, [pc, #24]	; 8024 <undefined_handler>
    8008:	e59ff018 	ldr	pc, [pc, #24]	; 8028 <swi_handler>
    800c:	e59ff018 	ldr	pc, [pc, #24]	; 802c <prefetch_handler>
    8010:	e59ff018 	ldr	pc, [pc, #24]	; 8030 <data_handler>
    8014:	e59ff018 	ldr	pc, [pc, #24]	; 8034 <unused_handler>
    8018:	e59ff018 	ldr	pc, [pc, #24]	; 8038 <irq_handler>
    801c:	e59ff018 	ldr	pc, [pc, #24]	; 803c <fiq_handler>

00008020 <reset_handler>:
    8020:	00008040 	andeq	r8, r0, r0, asr #32

00008024 <undefined_handler>:
    8024:	00008084 	andeq	r8, r0, r4, lsl #1

00008028 <swi_handler>:
    8028:	00008088 	andeq	r8, r0, r8, lsl #1

0000802c <prefetch_handler>:
    802c:	0000808c 	andeq	r8, r0, ip, lsl #1

00008030 <data_handler>:
    8030:	00008090 	muleq	r0, r0, r0

00008034 <unused_handler>:
    8034:	00008094 	muleq	r0, r4, r0

00008038 <irq_handler>:
    8038:	000080cc 	andeq	r8, r0, ip, asr #1

0000803c <fiq_handler>:
    803c:	00008098 	muleq	r0, r8, r0

00008040 <reset>:
    8040:	e3a00902 	mov	r0, #32768	; 0x8000
    8044:	e3a01000 	mov	r1, #0
    8048:	e8b003fc 	ldm	r0!, {r2, r3, r4, r5, r6, r7, r8, r9}
    804c:	e8a103fc 	stmia	r1!, {r2, r3, r4, r5, r6, r7, r8, r9}
    8050:	e8b003fc 	ldm	r0!, {r2, r3, r4, r5, r6, r7, r8, r9}
    8054:	e8a103fc 	stmia	r1!, {r2, r3, r4, r5, r6, r7, r8, r9}
    8058:	e3a000d1 	mov	r0, #209	; 0xd1
    805c:	e121f000 	msr	CPSR_c, r0
    8060:	e3a0d90e 	mov	sp, #229376	; 0x38000
    8064:	e3a000d2 	mov	r0, #210	; 0xd2
    8068:	e121f000 	msr	CPSR_c, r0
    806c:	e3a0d701 	mov	sp, #262144	; 0x40000
    8070:	e3a000d3 	mov	r0, #211	; 0xd3
    8074:	e121f000 	msr	CPSR_c, r0
    8078:	e3a0d912 	mov	sp, #294912	; 0x48000
    807c:	eb000021 	bl	8108 <kmain>

00008080 <hang>:
    8080:	eafffffe 	b	8080 <hang>

00008084 <undefined>:
    8084:	eafffffe 	b	8084 <undefined>

00008088 <swi>:
    8088:	eafffffe 	b	8088 <swi>

0000808c <prefetch>:
    808c:	eafffffe 	b	808c <prefetch>

00008090 <data>:
    8090:	eafffffe 	b	8090 <data>

00008094 <unused>:
    8094:	eafffffe 	b	8094 <unused>

00008098 <fiq>:
    8098:	eafffffe 	b	8098 <fiq>

0000809c <PUT32>:
    809c:	e5801000 	str	r1, [r0]
    80a0:	e12fff1e 	bx	lr

000080a4 <PUT16>:
    80a4:	e1c010b0 	strh	r1, [r0]
    80a8:	e12fff1e 	bx	lr

000080ac <PUT8>:
    80ac:	e5c01000 	strb	r1, [r0]
    80b0:	e12fff1e 	bx	lr

000080b4 <GET32>:
    80b4:	e5900000 	ldr	r0, [r0]
    80b8:	e12fff1e 	bx	lr

000080bc <GETPC>:
    80bc:	e1a0000e 	mov	r0, lr
    80c0:	e12fff1e 	bx	lr

000080c4 <BRANCHTO>:
    80c4:	e12fff10 	bx	r0

000080c8 <dummy>:
    80c8:	e12fff1e 	bx	lr

000080cc <irq>:
    80cc:	ea000168 	b	8674 <ctx_switch_from_irq>

000080d0 <funcA>:
    80d0:	e24dd008 	sub	sp, sp, #8
    80d4:	e3a03000 	mov	r3, #0
    80d8:	e58d3004 	str	r3, [sp, #4]
    80dc:	e59d3004 	ldr	r3, [sp, #4]
    80e0:	e2833001 	add	r3, r3, #1
    80e4:	e58d3004 	str	r3, [sp, #4]
    80e8:	eafffffb 	b	80dc <funcA+0xc>

000080ec <funcB>:
    80ec:	e24dd008 	sub	sp, sp, #8
    80f0:	e3a03001 	mov	r3, #1
    80f4:	e58d3004 	str	r3, [sp, #4]
    80f8:	e59d3004 	ldr	r3, [sp, #4]
    80fc:	e2833002 	add	r3, r3, #2
    8100:	e58d3004 	str	r3, [sp, #4]
    8104:	eafffffb 	b	80f8 <funcB+0xc>

00008108 <kmain>:
    8108:	e52de004 	push	{lr}		; (str lr, [sp, #-4]!)
    810c:	e24dd00c 	sub	sp, sp, #12
    8110:	e59f3030 	ldr	r3, [pc, #48]	; 8148 <kmain+0x40>
    8114:	e58d3004 	str	r3, [sp, #4]
    8118:	eb0002b0 	bl	8be0 <init_mem>
    811c:	eb000079 	bl	8308 <init_hw>
    8120:	e59f0024 	ldr	r0, [pc, #36]	; 814c <kmain+0x44>
    8124:	e3a01000 	mov	r1, #0
    8128:	e3a02e7d 	mov	r2, #2000	; 0x7d0
    812c:	eb000102 	bl	853c <create_process>
    8130:	e59f0018 	ldr	r0, [pc, #24]	; 8150 <kmain+0x48>
    8134:	e3a01000 	mov	r1, #0
    8138:	e3a02e7d 	mov	r2, #2000	; 0x7d0
    813c:	eb0000fe 	bl	853c <create_process>
    8140:	eb00017c 	bl	8738 <start_sched>
    8144:	eafffffe 	b	8144 <kmain+0x3c>
    8148:	deadbeef 	cdple	14, 10, cr11, cr13, cr15, {7}
    814c:	000080ec 	andeq	r8, r0, ip, ror #1
    8150:	000080d0 	ldrdeq	r8, [r0], -r0

00008154 <phyAlloc_alloc>:
    8154:	e92d0030 	push	{r4, r5}
    8158:	e24dd008 	sub	sp, sp, #8
    815c:	e58d0004 	str	r0, [sp, #4]
    8160:	e59f3094 	ldr	r3, [pc, #148]	; 81fc <phyAlloc_alloc+0xa8>
    8164:	e5934000 	ldr	r4, [r3]
    8168:	e59f508c 	ldr	r5, [pc, #140]	; 81fc <phyAlloc_alloc+0xa8>
    816c:	ea000001 	b	8178 <phyAlloc_alloc+0x24>
    8170:	e1a05004 	mov	r5, r4
    8174:	e5944000 	ldr	r4, [r4]
    8178:	e3540000 	cmp	r4, #0
    817c:	0a000003 	beq	8190 <phyAlloc_alloc+0x3c>
    8180:	e5942004 	ldr	r2, [r4, #4]
    8184:	e59d3004 	ldr	r3, [sp, #4]
    8188:	e1520003 	cmp	r2, r3
    818c:	3afffff7 	bcc	8170 <phyAlloc_alloc+0x1c>
    8190:	e3540000 	cmp	r4, #0
    8194:	1a000011 	bne	81e0 <phyAlloc_alloc+0x8c>
    8198:	e59f3060 	ldr	r3, [pc, #96]	; 8200 <phyAlloc_alloc+0xac>
    819c:	e5934000 	ldr	r4, [r3]
    81a0:	e59f3058 	ldr	r3, [pc, #88]	; 8200 <phyAlloc_alloc+0xac>
    81a4:	e5932000 	ldr	r2, [r3]
    81a8:	e59d3004 	ldr	r3, [sp, #4]
    81ac:	e2833003 	add	r3, r3, #3
    81b0:	e3c33003 	bic	r3, r3, #3
    81b4:	e0822003 	add	r2, r2, r3
    81b8:	e59f3040 	ldr	r3, [pc, #64]	; 8200 <phyAlloc_alloc+0xac>
    81bc:	e5832000 	str	r2, [r3]
    81c0:	e59f3038 	ldr	r3, [pc, #56]	; 8200 <phyAlloc_alloc+0xac>
    81c4:	e5932000 	ldr	r2, [r3]
    81c8:	e59f3034 	ldr	r3, [pc, #52]	; 8204 <phyAlloc_alloc+0xb0>
    81cc:	e5933000 	ldr	r3, [r3]
    81d0:	e1520003 	cmp	r2, r3
    81d4:	9a000003 	bls	81e8 <phyAlloc_alloc+0x94>
    81d8:	e3a03000 	mov	r3, #0
    81dc:	ea000002 	b	81ec <phyAlloc_alloc+0x98>
    81e0:	e5943000 	ldr	r3, [r4]
    81e4:	e5853000 	str	r3, [r5]
    81e8:	e1a03004 	mov	r3, r4
    81ec:	e1a00003 	mov	r0, r3
    81f0:	e28dd008 	add	sp, sp, #8
    81f4:	e8bd0030 	pop	{r4, r5}
    81f8:	e12fff1e 	bx	lr
    81fc:	00008c18 	andeq	r8, r0, r8, lsl ip
    8200:	00008c1c 	andeq	r8, r0, ip, lsl ip
    8204:	00008c20 	andeq	r8, r0, r0, lsr #24

00008208 <phyAlloc_free>:
    8208:	e52d4004 	push	{r4}		; (str r4, [sp, #-4]!)
    820c:	e24dd00c 	sub	sp, sp, #12
    8210:	e58d0004 	str	r0, [sp, #4]
    8214:	e58d1000 	str	r1, [sp]
    8218:	e59d4004 	ldr	r4, [sp, #4]
    821c:	e59d3000 	ldr	r3, [sp]
    8220:	e2833003 	add	r3, r3, #3
    8224:	e3c33003 	bic	r3, r3, #3
    8228:	e5843004 	str	r3, [r4, #4]
    822c:	e59f3018 	ldr	r3, [pc, #24]	; 824c <phyAlloc_free+0x44>
    8230:	e5933000 	ldr	r3, [r3]
    8234:	e5843000 	str	r3, [r4]
    8238:	e59f300c 	ldr	r3, [pc, #12]	; 824c <phyAlloc_free+0x44>
    823c:	e5834000 	str	r4, [r3]
    8240:	e28dd00c 	add	sp, sp, #12
    8244:	e8bd0010 	pop	{r4}
    8248:	e12fff1e 	bx	lr
    824c:	00008c18 	andeq	r8, r0, r8, lsl ip

00008250 <phyAlloc_init>:
    8250:	e24dd008 	sub	sp, sp, #8
    8254:	e58d0004 	str	r0, [sp, #4]
    8258:	e58d1000 	str	r1, [sp]
    825c:	e59f3020 	ldr	r3, [pc, #32]	; 8284 <phyAlloc_init+0x34>
    8260:	e59d2004 	ldr	r2, [sp, #4]
    8264:	e5832000 	str	r2, [r3]
    8268:	e59d2004 	ldr	r2, [sp, #4]
    826c:	e59d3000 	ldr	r3, [sp]
    8270:	e0822003 	add	r2, r2, r3
    8274:	e59f300c 	ldr	r3, [pc, #12]	; 8288 <phyAlloc_init+0x38>
    8278:	e5832000 	str	r2, [r3]
    827c:	e28dd008 	add	sp, sp, #8
    8280:	e12fff1e 	bx	lr
    8284:	00008c1c 	andeq	r8, r0, ip, lsl ip
    8288:	00008c20 	andeq	r8, r0, r0, lsr #24

0000828c <set_tick_and_enable_timer>:
    828c:	e52de004 	push	{lr}		; (str lr, [sp, #-4]!)
    8290:	e24dd00c 	sub	sp, sp, #12
    8294:	e59f0030 	ldr	r0, [pc, #48]	; 82cc <set_tick_and_enable_timer+0x40>
    8298:	ebffff85 	bl	80b4 <GET32>
    829c:	e58d0004 	str	r0, [sp, #4]
    82a0:	e59d3004 	ldr	r3, [sp, #4]
    82a4:	e2833702 	add	r3, r3, #524288	; 0x80000
    82a8:	e58d3004 	str	r3, [sp, #4]
    82ac:	e59f001c 	ldr	r0, [pc, #28]	; 82d0 <set_tick_and_enable_timer+0x44>
    82b0:	e59d1004 	ldr	r1, [sp, #4]
    82b4:	ebffff78 	bl	809c <PUT32>
    82b8:	e59f0014 	ldr	r0, [pc, #20]	; 82d4 <set_tick_and_enable_timer+0x48>
    82bc:	e3a01002 	mov	r1, #2
    82c0:	ebffff75 	bl	809c <PUT32>
    82c4:	e28dd00c 	add	sp, sp, #12
    82c8:	e8bd8000 	pop	{pc}
    82cc:	20003004 	andcs	r3, r0, r4
    82d0:	20003010 	andcs	r3, r0, r0, lsl r0
    82d4:	20003000 	andcs	r3, r0, r0

000082d8 <led_off>:
    82d8:	e92d4008 	push	{r3, lr}
    82dc:	e59f0008 	ldr	r0, [pc, #8]	; 82ec <led_off+0x14>
    82e0:	e3a01801 	mov	r1, #65536	; 0x10000
    82e4:	ebffff6c 	bl	809c <PUT32>
    82e8:	e8bd8008 	pop	{r3, pc}
    82ec:	2020001c 	eorcs	r0, r0, ip, lsl r0

000082f0 <led_on>:
    82f0:	e92d4008 	push	{r3, lr}
    82f4:	e59f0008 	ldr	r0, [pc, #8]	; 8304 <led_on+0x14>
    82f8:	e3a01801 	mov	r1, #65536	; 0x10000
    82fc:	ebffff66 	bl	809c <PUT32>
    8300:	e8bd8008 	pop	{r3, pc}
    8304:	20200028 	eorcs	r0, r0, r8, lsr #32

00008308 <init_hw>:
    8308:	e52de004 	push	{lr}		; (str lr, [sp, #-4]!)
    830c:	e24dd00c 	sub	sp, sp, #12
    8310:	e59f0098 	ldr	r0, [pc, #152]	; 83b0 <init_hw+0xa8>
    8314:	ebffff66 	bl	80b4 <GET32>
    8318:	e58d0004 	str	r0, [sp, #4]
    831c:	e59d3004 	ldr	r3, [sp, #4]
    8320:	e3c33707 	bic	r3, r3, #1835008	; 0x1c0000
    8324:	e58d3004 	str	r3, [sp, #4]
    8328:	e59d3004 	ldr	r3, [sp, #4]
    832c:	e3833701 	orr	r3, r3, #262144	; 0x40000
    8330:	e58d3004 	str	r3, [sp, #4]
    8334:	e59f0074 	ldr	r0, [pc, #116]	; 83b0 <init_hw+0xa8>
    8338:	e59d1004 	ldr	r1, [sp, #4]
    833c:	ebffff56 	bl	809c <PUT32>
    8340:	e59f006c 	ldr	r0, [pc, #108]	; 83b4 <init_hw+0xac>
    8344:	e3a01801 	mov	r1, #65536	; 0x10000
    8348:	ebffff53 	bl	809c <PUT32>
    834c:	e59f0064 	ldr	r0, [pc, #100]	; 83b8 <init_hw+0xb0>
    8350:	ebffff57 	bl	80b4 <GET32>
    8354:	e58d0000 	str	r0, [sp]
    8358:	e59d3000 	ldr	r3, [sp]
    835c:	e2833702 	add	r3, r3, #524288	; 0x80000
    8360:	e58d3000 	str	r3, [sp]
    8364:	e59f0050 	ldr	r0, [pc, #80]	; 83bc <init_hw+0xb4>
    8368:	e59d1000 	ldr	r1, [sp]
    836c:	ebffff4a 	bl	809c <PUT32>
    8370:	e59f0048 	ldr	r0, [pc, #72]	; 83c0 <init_hw+0xb8>
    8374:	e3a01002 	mov	r1, #2
    8378:	ebffff47 	bl	809c <PUT32>
    837c:	e59f0040 	ldr	r0, [pc, #64]	; 83c4 <init_hw+0xbc>
    8380:	e3a01002 	mov	r1, #2
    8384:	ebffff44 	bl	809c <PUT32>
    8388:	e92d0001 	push	{r0}
    838c:	e10f0000 	mrs	r0, CPSR
    8390:	e3800080 	orr	r0, r0, #128	; 0x80
    8394:	e121f000 	msr	CPSR_c, r0
    8398:	e8bd0001 	pop	{r0}
    839c:	e3a00805 	mov	r0, #327680	; 0x50000
    83a0:	e3a01a32 	mov	r1, #204800	; 0x32000
    83a4:	ebffffa9 	bl	8250 <phyAlloc_init>
    83a8:	e28dd00c 	add	sp, sp, #12
    83ac:	e8bd8000 	pop	{pc}
    83b0:	20200004 	eorcs	r0, r0, r4
    83b4:	2020001c 	eorcs	r0, r0, ip, lsl r0
    83b8:	20003004 	andcs	r3, r0, r4
    83bc:	20003010 	andcs	r3, r0, r0, lsl r0
    83c0:	20003000 	andcs	r3, r0, r0
    83c4:	2000b210 	andcs	fp, r0, r0, lsl r2

000083c8 <save_elect_restore>:
    83c8:	e92d4008 	push	{r3, lr}
    83cc:	e59f306c 	ldr	r3, [pc, #108]	; 8440 <save_elect_restore+0x78>
    83d0:	e5933000 	ldr	r3, [r3]
    83d4:	e5d33010 	ldrb	r3, [r3, #16]
    83d8:	e3530004 	cmp	r3, #4
    83dc:	0a00000c 	beq	8414 <save_elect_restore+0x4c>
    83e0:	e92d1fff 	push	{r0, r1, r2, r3, r4, r5, r6, r7, r8, r9, sl, fp, ip}
    83e4:	e59f3054 	ldr	r3, [pc, #84]	; 8440 <save_elect_restore+0x78>
    83e8:	e5933000 	ldr	r3, [r3]
    83ec:	e1a0200d 	mov	r2, sp
    83f0:	e5832008 	str	r2, [r3, #8]
    83f4:	e59f3044 	ldr	r3, [pc, #68]	; 8440 <save_elect_restore+0x78>
    83f8:	e5933000 	ldr	r3, [r3]
    83fc:	e1a0200e 	mov	r2, lr
    8400:	e583200c 	str	r2, [r3, #12]
    8404:	e59f3034 	ldr	r3, [pc, #52]	; 8440 <save_elect_restore+0x78>
    8408:	e5933000 	ldr	r3, [r3]
    840c:	e3a02003 	mov	r2, #3
    8410:	e5c32010 	strb	r2, [r3, #16]
    8414:	eb000082 	bl	8624 <elect>
    8418:	e59f3020 	ldr	r3, [pc, #32]	; 8440 <save_elect_restore+0x78>
    841c:	e5933000 	ldr	r3, [r3]
    8420:	e3a02002 	mov	r2, #2
    8424:	e5c32010 	strb	r2, [r3, #16]
    8428:	e59f3010 	ldr	r3, [pc, #16]	; 8440 <save_elect_restore+0x78>
    842c:	e5933000 	ldr	r3, [r3]
    8430:	e5933008 	ldr	r3, [r3, #8]
    8434:	e1a0d003 	mov	sp, r3
    8438:	e8bd1fff 	pop	{r0, r1, r2, r3, r4, r5, r6, r7, r8, r9, sl, fp, ip}
    843c:	e8bd8008 	pop	{r3, pc}
    8440:	00008c2c 	andeq	r8, r0, ip, lsr #24

00008444 <ctx_switch>:
    8444:	ebffffdf 	bl	83c8 <save_elect_restore>
    8448:	eb00006f 	bl	860c <start_current_process>

0000844c <init_pcb>:
    844c:	e24dd010 	sub	sp, sp, #16
    8450:	e58d000c 	str	r0, [sp, #12]
    8454:	e58d1008 	str	r1, [sp, #8]
    8458:	e58d2004 	str	r2, [sp, #4]
    845c:	e58d3000 	str	r3, [sp]
    8460:	e59d300c 	ldr	r3, [sp, #12]
    8464:	e59d2008 	ldr	r2, [sp, #8]
    8468:	e583200c 	str	r2, [r3, #12]
    846c:	e59d300c 	ldr	r3, [sp, #12]
    8470:	e59d2008 	ldr	r2, [sp, #8]
    8474:	e5832000 	str	r2, [r3]
    8478:	e59d300c 	ldr	r3, [sp, #12]
    847c:	e59d2000 	ldr	r2, [sp]
    8480:	e5832008 	str	r2, [r3, #8]
    8484:	e59d300c 	ldr	r3, [sp, #12]
    8488:	e59d2004 	ldr	r2, [sp, #4]
    848c:	e5832004 	str	r2, [r3, #4]
    8490:	e59d300c 	ldr	r3, [sp, #12]
    8494:	e3a02000 	mov	r2, #0
    8498:	e5c32010 	strb	r2, [r3, #16]
    849c:	e28dd010 	add	sp, sp, #16
    84a0:	e12fff1e 	bx	lr

000084a4 <sched_exit>:
    84a4:	e92d4008 	push	{r3, lr}
    84a8:	e59f3010 	ldr	r3, [pc, #16]	; 84c0 <sched_exit+0x1c>
    84ac:	e5933000 	ldr	r3, [r3]
    84b0:	e3a02004 	mov	r2, #4
    84b4:	e5c32010 	strb	r2, [r3, #16]
    84b8:	ebffffe1 	bl	8444 <ctx_switch>
    84bc:	e8bd8008 	pop	{r3, pc}
    84c0:	00008c2c 	andeq	r8, r0, ip, lsr #24

000084c4 <terminate_process>:
    84c4:	e52de004 	push	{lr}		; (str lr, [sp, #-4]!)
    84c8:	e24dd014 	sub	sp, sp, #20
    84cc:	e58d0004 	str	r0, [sp, #4]
    84d0:	e59d3004 	ldr	r3, [sp, #4]
    84d4:	e5933008 	ldr	r3, [r3, #8]
    84d8:	e2433e79 	sub	r3, r3, #1936	; 0x790
    84dc:	e2433007 	sub	r3, r3, #7
    84e0:	e1a00003 	mov	r0, r3
    84e4:	e3a01e7d 	mov	r1, #2000	; 0x7d0
    84e8:	ebffff46 	bl	8208 <phyAlloc_free>
    84ec:	e59d0004 	ldr	r0, [sp, #4]
    84f0:	e3a01018 	mov	r1, #24
    84f4:	ebffff43 	bl	8208 <phyAlloc_free>
    84f8:	e59d3004 	ldr	r3, [sp, #4]
    84fc:	e58d300c 	str	r3, [sp, #12]
    8500:	ea000002 	b	8510 <terminate_process+0x4c>
    8504:	e59d300c 	ldr	r3, [sp, #12]
    8508:	e5933014 	ldr	r3, [r3, #20]
    850c:	e58d300c 	str	r3, [sp, #12]
    8510:	e59d300c 	ldr	r3, [sp, #12]
    8514:	e5932014 	ldr	r2, [r3, #20]
    8518:	e59d3004 	ldr	r3, [sp, #4]
    851c:	e1520003 	cmp	r2, r3
    8520:	1afffff7 	bne	8504 <terminate_process+0x40>
    8524:	e59d3004 	ldr	r3, [sp, #4]
    8528:	e5932014 	ldr	r2, [r3, #20]
    852c:	e59d300c 	ldr	r3, [sp, #12]
    8530:	e5832014 	str	r2, [r3, #20]
    8534:	e28dd014 	add	sp, sp, #20
    8538:	e8bd8000 	pop	{pc}

0000853c <create_process>:
    853c:	e52de004 	push	{lr}		; (str lr, [sp, #-4]!)
    8540:	e24dd024 	sub	sp, sp, #36	; 0x24
    8544:	e58d000c 	str	r0, [sp, #12]
    8548:	e58d1008 	str	r1, [sp, #8]
    854c:	e58d2004 	str	r2, [sp, #4]
    8550:	e59d0004 	ldr	r0, [sp, #4]
    8554:	ebfffefe 	bl	8154 <phyAlloc_alloc>
    8558:	e1a03000 	mov	r3, r0
    855c:	e1a02003 	mov	r2, r3
    8560:	e59d3004 	ldr	r3, [sp, #4]
    8564:	e0823003 	add	r3, r2, r3
    8568:	e2433039 	sub	r3, r3, #57	; 0x39
    856c:	e58d3018 	str	r3, [sp, #24]
    8570:	e3a03018 	mov	r3, #24
    8574:	e58d3014 	str	r3, [sp, #20]
    8578:	e59d0014 	ldr	r0, [sp, #20]
    857c:	ebfffef4 	bl	8154 <phyAlloc_alloc>
    8580:	e1a03000 	mov	r3, r0
    8584:	e58d3010 	str	r3, [sp, #16]
    8588:	e59f3078 	ldr	r3, [pc, #120]	; 8608 <create_process+0xcc>
    858c:	e5933000 	ldr	r3, [r3]
    8590:	e3530000 	cmp	r3, #0
    8594:	1a000003 	bne	85a8 <create_process+0x6c>
    8598:	e59f3068 	ldr	r3, [pc, #104]	; 8608 <create_process+0xcc>
    859c:	e59d2010 	ldr	r2, [sp, #16]
    85a0:	e5832000 	str	r2, [r3]
    85a4:	ea00000d 	b	85e0 <create_process+0xa4>
    85a8:	e59f3058 	ldr	r3, [pc, #88]	; 8608 <create_process+0xcc>
    85ac:	e5933000 	ldr	r3, [r3]
    85b0:	e58d301c 	str	r3, [sp, #28]
    85b4:	ea000002 	b	85c4 <create_process+0x88>
    85b8:	e59d301c 	ldr	r3, [sp, #28]
    85bc:	e5933014 	ldr	r3, [r3, #20]
    85c0:	e58d301c 	str	r3, [sp, #28]
    85c4:	e59d301c 	ldr	r3, [sp, #28]
    85c8:	e5933014 	ldr	r3, [r3, #20]
    85cc:	e3530000 	cmp	r3, #0
    85d0:	1afffff8 	bne	85b8 <create_process+0x7c>
    85d4:	e59d301c 	ldr	r3, [sp, #28]
    85d8:	e59d2010 	ldr	r2, [sp, #16]
    85dc:	e5832014 	str	r2, [r3, #20]
    85e0:	e59d0010 	ldr	r0, [sp, #16]
    85e4:	e59d100c 	ldr	r1, [sp, #12]
    85e8:	e59d2008 	ldr	r2, [sp, #8]
    85ec:	e59d3018 	ldr	r3, [sp, #24]
    85f0:	ebffff95 	bl	844c <init_pcb>
    85f4:	e59d3010 	ldr	r3, [sp, #16]
    85f8:	e3a02001 	mov	r2, #1
    85fc:	e5c32010 	strb	r2, [r3, #16]
    8600:	e28dd024 	add	sp, sp, #36	; 0x24
    8604:	e8bd8000 	pop	{pc}
    8608:	00008c24 	andeq	r8, r0, r4, lsr #24

0000860c <start_current_process>:
    860c:	e59f300c 	ldr	r3, [pc, #12]	; 8620 <start_current_process+0x14>
    8610:	e5933000 	ldr	r3, [r3]
    8614:	e593300c 	ldr	r3, [r3, #12]
    8618:	e12fff13 	bx	r3
    861c:	e12fff1e 	bx	lr
    8620:	00008c2c 	andeq	r8, r0, ip, lsr #24

00008624 <elect>:
    8624:	e92d4008 	push	{r3, lr}
    8628:	ea000004 	b	8640 <elect+0x1c>
    862c:	e59f303c 	ldr	r3, [pc, #60]	; 8670 <elect+0x4c>
    8630:	e5933000 	ldr	r3, [r3]
    8634:	e5933014 	ldr	r3, [r3, #20]
    8638:	e1a00003 	mov	r0, r3
    863c:	ebffffa0 	bl	84c4 <terminate_process>
    8640:	e59f3028 	ldr	r3, [pc, #40]	; 8670 <elect+0x4c>
    8644:	e5933000 	ldr	r3, [r3]
    8648:	e5933014 	ldr	r3, [r3, #20]
    864c:	e5d33010 	ldrb	r3, [r3, #16]
    8650:	e3530004 	cmp	r3, #4
    8654:	0afffff4 	beq	862c <elect+0x8>
    8658:	e59f3010 	ldr	r3, [pc, #16]	; 8670 <elect+0x4c>
    865c:	e5933000 	ldr	r3, [r3]
    8660:	e5932014 	ldr	r2, [r3, #20]
    8664:	e59f3004 	ldr	r3, [pc, #4]	; 8670 <elect+0x4c>
    8668:	e5832000 	str	r2, [r3]
    866c:	e8bd8008 	pop	{r3, pc}
    8670:	00008c2c 	andeq	r8, r0, ip, lsr #24

00008674 <ctx_switch_from_irq>:
    8674:	e92d0001 	push	{r0}
    8678:	e10f0000 	mrs	r0, CPSR
    867c:	e3800080 	orr	r0, r0, #128	; 0x80
    8680:	e121f000 	msr	CPSR_c, r0
    8684:	e8bd0001 	pop	{r0}
    8688:	e24ee004 	sub	lr, lr, #4
    868c:	f96d0513 	srsdb	sp!, #19
    8690:	f1020013 	cps	#19
    8694:	e92d1fff 	push	{r0, r1, r2, r3, r4, r5, r6, r7, r8, r9, sl, fp, ip}
    8698:	e59f3094 	ldr	r3, [pc, #148]	; 8734 <ctx_switch_from_irq+0xc0>
    869c:	e5933000 	ldr	r3, [r3]
    86a0:	e1a0200d 	mov	r2, sp
    86a4:	e5832008 	str	r2, [r3, #8]
    86a8:	e59f3084 	ldr	r3, [pc, #132]	; 8734 <ctx_switch_from_irq+0xc0>
    86ac:	e5933000 	ldr	r3, [r3]
    86b0:	e1a0200e 	mov	r2, lr
    86b4:	e583200c 	str	r2, [r3, #12]
    86b8:	e59f3074 	ldr	r3, [pc, #116]	; 8734 <ctx_switch_from_irq+0xc0>
    86bc:	e5933000 	ldr	r3, [r3]
    86c0:	e3a02003 	mov	r2, #3
    86c4:	e5c32010 	strb	r2, [r3, #16]
    86c8:	ebffffd5 	bl	8624 <elect>
    86cc:	e59f3060 	ldr	r3, [pc, #96]	; 8734 <ctx_switch_from_irq+0xc0>
    86d0:	e5933000 	ldr	r3, [r3]
    86d4:	e5933008 	ldr	r3, [r3, #8]
    86d8:	e1a0d003 	mov	sp, r3
    86dc:	e8bd1fff 	pop	{r0, r1, r2, r3, r4, r5, r6, r7, r8, r9, sl, fp, ip}
    86e0:	ebfffee9 	bl	828c <set_tick_and_enable_timer>
    86e4:	e92d0001 	push	{r0}
    86e8:	e10f0000 	mrs	r0, CPSR
    86ec:	e3c00080 	bic	r0, r0, #128	; 0x80
    86f0:	e121f000 	msr	CPSR_c, r0
    86f4:	e8bd0001 	pop	{r0}
    86f8:	e59f3034 	ldr	r3, [pc, #52]	; 8734 <ctx_switch_from_irq+0xc0>
    86fc:	e5933000 	ldr	r3, [r3]
    8700:	e5d33010 	ldrb	r3, [r3, #16]
    8704:	e3530001 	cmp	r3, #1
    8708:	1a000008 	bne	8730 <ctx_switch_from_irq+0xbc>
    870c:	e59f3020 	ldr	r3, [pc, #32]	; 8734 <ctx_switch_from_irq+0xc0>
    8710:	e5933000 	ldr	r3, [r3]
    8714:	e3a02002 	mov	r2, #2
    8718:	e5c32010 	strb	r2, [r3, #16]
    871c:	e59f3010 	ldr	r3, [pc, #16]	; 8734 <ctx_switch_from_irq+0xc0>
    8720:	e5933000 	ldr	r3, [r3]
    8724:	e593300c 	ldr	r3, [r3, #12]
    8728:	e12fff13 	bx	r3
    872c:	ea000000 	b	8734 <ctx_switch_from_irq+0xc0>
    8730:	f8bd0a00 	rfeia	sp!
    8734:	00008c2c 	andeq	r8, r0, ip, lsr #24

00008738 <start_sched>:
    8738:	e52de004 	push	{lr}		; (str lr, [sp, #-4]!)
    873c:	e24dd00c 	sub	sp, sp, #12
    8740:	e59f3098 	ldr	r3, [pc, #152]	; 87e0 <start_sched+0xa8>
    8744:	e5933000 	ldr	r3, [r3]
    8748:	e58d3004 	str	r3, [sp, #4]
    874c:	ea000002 	b	875c <start_sched+0x24>
    8750:	e59d3004 	ldr	r3, [sp, #4]
    8754:	e5933014 	ldr	r3, [r3, #20]
    8758:	e58d3004 	str	r3, [sp, #4]
    875c:	e59d3004 	ldr	r3, [sp, #4]
    8760:	e5933014 	ldr	r3, [r3, #20]
    8764:	e3530000 	cmp	r3, #0
    8768:	1afffff8 	bne	8750 <start_sched+0x18>
    876c:	e59f306c 	ldr	r3, [pc, #108]	; 87e0 <start_sched+0xa8>
    8770:	e5932000 	ldr	r2, [r3]
    8774:	e59d3004 	ldr	r3, [sp, #4]
    8778:	e5832014 	str	r2, [r3, #20]
    877c:	e3a03018 	mov	r3, #24
    8780:	e58d3000 	str	r3, [sp]
    8784:	e59d0000 	ldr	r0, [sp]
    8788:	ebfffe71 	bl	8154 <phyAlloc_alloc>
    878c:	e1a03000 	mov	r3, r0
    8790:	e1a02003 	mov	r2, r3
    8794:	e59f3048 	ldr	r3, [pc, #72]	; 87e4 <start_sched+0xac>
    8798:	e5832000 	str	r2, [r3]
    879c:	e59f3040 	ldr	r3, [pc, #64]	; 87e4 <start_sched+0xac>
    87a0:	e5933000 	ldr	r3, [r3]
    87a4:	e59f2034 	ldr	r2, [pc, #52]	; 87e0 <start_sched+0xa8>
    87a8:	e5922000 	ldr	r2, [r2]
    87ac:	e5832014 	str	r2, [r3, #20]
    87b0:	e59f302c 	ldr	r3, [pc, #44]	; 87e4 <start_sched+0xac>
    87b4:	e5932000 	ldr	r2, [r3]
    87b8:	e59f3028 	ldr	r3, [pc, #40]	; 87e8 <start_sched+0xb0>
    87bc:	e5832000 	str	r2, [r3]
    87c0:	e92d0001 	push	{r0}
    87c4:	e10f0000 	mrs	r0, CPSR
    87c8:	e3c00080 	bic	r0, r0, #128	; 0x80
    87cc:	e121f000 	msr	CPSR_c, r0
    87d0:	e8bd0001 	pop	{r0}
    87d4:	ebfffeac 	bl	828c <set_tick_and_enable_timer>
    87d8:	e28dd00c 	add	sp, sp, #12
    87dc:	e8bd8000 	pop	{pc}
    87e0:	00008c24 	andeq	r8, r0, r4, lsr #24
    87e4:	00008c28 	andeq	r8, r0, r8, lsr #24
    87e8:	00008c2c 	andeq	r8, r0, ip, lsr #24

000087ec <start_mmu_C>:
    87ec:	e52d4004 	push	{r4}		; (str r4, [sp, #-4]!)
    87f0:	f1080100 	cpsie	a
    87f4:	f1080080 	cpsie	i
    87f8:	e3a03000 	mov	r3, #0
    87fc:	ee013f10 	mcr	15, 0, r3, cr1, cr0, {0}
    8800:	ee070f17 	mcr	15, 0, r0, cr7, cr7, {0}
    8804:	ee080f17 	mcr	15, 0, r0, cr8, cr7, {0}
    8808:	ee114f10 	mrc	15, 0, r4, cr1, cr0, {0}
    880c:	e59f3018 	ldr	r3, [pc, #24]	; 882c <start_mmu_C+0x40>
    8810:	e1843003 	orr	r3, r4, r3
    8814:	e1a04003 	mov	r4, r3
    8818:	e3a03000 	mov	r3, #0
    881c:	ee083f17 	mcr	15, 0, r3, cr8, cr7, {0}
    8820:	ee014f10 	mcr	15, 0, r4, cr1, cr0, {0}
    8824:	e8bd0010 	pop	{r4}
    8828:	e12fff1e 	bx	lr
    882c:	00808011 	addeq	r8, r0, r1, lsl r0

00008830 <configure_mmu_C>:
    8830:	e52d4004 	push	{r4}		; (str r4, [sp, #-4]!)
    8834:	e3a04912 	mov	r4, #294912	; 0x48000
    8838:	ee024f10 	mcr	15, 0, r4, cr2, cr0, {0}
    883c:	ee024f30 	mcr	15, 0, r4, cr2, cr0, {1}
    8840:	e3a03000 	mov	r3, #0
    8844:	ee023f50 	mcr	15, 0, r3, cr2, cr0, {2}
    8848:	e3a03003 	mov	r3, #3
    884c:	ee033f10 	mcr	15, 0, r3, cr3, cr0, {0}
    8850:	e8bd0010 	pop	{r4}
    8854:	e12fff1e 	bx	lr

00008858 <computePageAddr>:
    8858:	e24dd008 	sub	sp, sp, #8
    885c:	e58d0004 	str	r0, [sp, #4]
    8860:	e58d1000 	str	r1, [sp]
    8864:	e59d3004 	ldr	r3, [sp, #4]
    8868:	e1a02403 	lsl	r2, r3, #8
    886c:	e59d3000 	ldr	r3, [sp]
    8870:	e0823003 	add	r3, r2, r3
    8874:	e1a03603 	lsl	r3, r3, #12
    8878:	e1a00003 	mov	r0, r3
    887c:	e28dd008 	add	sp, sp, #8
    8880:	e12fff1e 	bx	lr

00008884 <init_kern_translation_table>:
    8884:	e52de004 	push	{lr}		; (str lr, [sp, #-4]!)
    8888:	e24dd024 	sub	sp, sp, #36	; 0x24
    888c:	e3a0303e 	mov	r3, #62	; 0x3e
    8890:	e58d300c 	str	r3, [sp, #12]
    8894:	e3a03001 	mov	r3, #1
    8898:	e58d3008 	str	r3, [sp, #8]
    889c:	e3a03912 	mov	r3, #294912	; 0x48000
    88a0:	e58d3018 	str	r3, [sp, #24]
    88a4:	e3a03000 	mov	r3, #0
    88a8:	e58d301c 	str	r3, [sp, #28]
    88ac:	ea00003b 	b	89a0 <init_kern_translation_table+0x11c>
    88b0:	e59d301c 	ldr	r3, [sp, #28]
    88b4:	e2833e13 	add	r3, r3, #304	; 0x130
    88b8:	e1a03503 	lsl	r3, r3, #10
    88bc:	e58d3010 	str	r3, [sp, #16]
    88c0:	e3a03000 	mov	r3, #0
    88c4:	e58d3014 	str	r3, [sp, #20]
    88c8:	ea000022 	b	8958 <init_kern_translation_table+0xd4>
    88cc:	e59d001c 	ldr	r0, [sp, #28]
    88d0:	e59d1014 	ldr	r1, [sp, #20]
    88d4:	ebffffdf 	bl	8858 <computePageAddr>
    88d8:	e58d0004 	str	r0, [sp, #4]
    88dc:	e59d2004 	ldr	r2, [sp, #4]
    88e0:	e59f30d8 	ldr	r3, [pc, #216]	; 89c0 <init_kern_translation_table+0x13c>
    88e4:	e1520003 	cmp	r2, r3
    88e8:	8a000004 	bhi	8900 <init_kern_translation_table+0x7c>
    88ec:	e59d3004 	ldr	r3, [sp, #4]
    88f0:	e3832072 	orr	r2, r3, #114	; 0x72
    88f4:	e59d3010 	ldr	r3, [sp, #16]
    88f8:	e5832000 	str	r2, [r3]
    88fc:	ea00000f 	b	8940 <init_kern_translation_table+0xbc>
    8900:	e59d3004 	ldr	r3, [sp, #4]
    8904:	e3530202 	cmp	r3, #536870912	; 0x20000000
    8908:	9a000009 	bls	8934 <init_kern_translation_table+0xb0>
    890c:	e59d2004 	ldr	r2, [sp, #4]
    8910:	e59f30ac 	ldr	r3, [pc, #172]	; 89c4 <init_kern_translation_table+0x140>
    8914:	e1520003 	cmp	r2, r3
    8918:	8a000005 	bhi	8934 <init_kern_translation_table+0xb0>
    891c:	e59d2004 	ldr	r2, [sp, #4]
    8920:	e59d300c 	ldr	r3, [sp, #12]
    8924:	e1822003 	orr	r2, r2, r3
    8928:	e59d3010 	ldr	r3, [sp, #16]
    892c:	e5832000 	str	r2, [r3]
    8930:	ea000002 	b	8940 <init_kern_translation_table+0xbc>
    8934:	e59d3010 	ldr	r3, [sp, #16]
    8938:	e3a02000 	mov	r2, #0
    893c:	e5832000 	str	r2, [r3]
    8940:	e59d3010 	ldr	r3, [sp, #16]
    8944:	e2833004 	add	r3, r3, #4
    8948:	e58d3010 	str	r3, [sp, #16]
    894c:	e59d3014 	ldr	r3, [sp, #20]
    8950:	e2833001 	add	r3, r3, #1
    8954:	e58d3014 	str	r3, [sp, #20]
    8958:	e59d3014 	ldr	r3, [sp, #20]
    895c:	e35300ff 	cmp	r3, #255	; 0xff
    8960:	daffffd9 	ble	88cc <init_kern_translation_table+0x48>
    8964:	e59d301c 	ldr	r3, [sp, #28]
    8968:	e2833e13 	add	r3, r3, #304	; 0x130
    896c:	e1a03503 	lsl	r3, r3, #10
    8970:	e58d3000 	str	r3, [sp]
    8974:	e59d2000 	ldr	r2, [sp]
    8978:	e59d3008 	ldr	r3, [sp, #8]
    897c:	e1822003 	orr	r2, r2, r3
    8980:	e59d3018 	ldr	r3, [sp, #24]
    8984:	e5832000 	str	r2, [r3]
    8988:	e59d3018 	ldr	r3, [sp, #24]
    898c:	e2833004 	add	r3, r3, #4
    8990:	e58d3018 	str	r3, [sp, #24]
    8994:	e59d301c 	ldr	r3, [sp, #28]
    8998:	e2833001 	add	r3, r3, #1
    899c:	e58d301c 	str	r3, [sp, #28]
    89a0:	e59d201c 	ldr	r2, [sp, #28]
    89a4:	e59f301c 	ldr	r3, [pc, #28]	; 89c8 <init_kern_translation_table+0x144>
    89a8:	e1520003 	cmp	r2, r3
    89ac:	daffffbf 	ble	88b0 <init_kern_translation_table+0x2c>
    89b0:	e3a03000 	mov	r3, #0
    89b4:	e1a00003 	mov	r0, r3
    89b8:	e28dd024 	add	sp, sp, #36	; 0x24
    89bc:	e8bd8000 	pop	{pc}
    89c0:	004fffff 	strdeq	pc, [pc], #-255	; <UNPREDICTABLE>
    89c4:	20fffffe 	ldrshtcs	pc, [pc], #254	; <UNPREDICTABLE>
    89c8:	00000fff 	strdeq	r0, [r0], -pc	; <UNPREDICTABLE>

000089cc <init_occupation_table>:
    89cc:	e24dd008 	sub	sp, sp, #8
    89d0:	e3a03000 	mov	r3, #0
    89d4:	e58d3000 	str	r3, [sp]
    89d8:	e59f3060 	ldr	r3, [pc, #96]	; 8a40 <init_occupation_table+0x74>
    89dc:	e58d3004 	str	r3, [sp, #4]
    89e0:	ea000010 	b	8a28 <init_occupation_table+0x5c>
    89e4:	e59d2000 	ldr	r2, [sp]
    89e8:	e59f3054 	ldr	r3, [pc, #84]	; 8a44 <init_occupation_table+0x78>
    89ec:	e1520003 	cmp	r2, r3
    89f0:	ca000003 	bgt	8a04 <init_occupation_table+0x38>
    89f4:	e59d3004 	ldr	r3, [sp, #4]
    89f8:	e3a02001 	mov	r2, #1
    89fc:	e5c32000 	strb	r2, [r3]
    8a00:	ea000002 	b	8a10 <init_occupation_table+0x44>
    8a04:	e59d3004 	ldr	r3, [sp, #4]
    8a08:	e3a02000 	mov	r2, #0
    8a0c:	e5c32000 	strb	r2, [r3]
    8a10:	e59d3000 	ldr	r3, [sp]
    8a14:	e2833001 	add	r3, r3, #1
    8a18:	e58d3000 	str	r3, [sp]
    8a1c:	e59d3004 	ldr	r3, [sp, #4]
    8a20:	e2833001 	add	r3, r3, #1
    8a24:	e58d3004 	str	r3, [sp, #4]
    8a28:	e59d2004 	ldr	r2, [sp, #4]
    8a2c:	e59f3014 	ldr	r3, [pc, #20]	; 8a48 <init_occupation_table+0x7c>
    8a30:	e1520003 	cmp	r2, r3
    8a34:	9affffea 	bls	89e4 <init_occupation_table+0x18>
    8a38:	e28dd008 	add	sp, sp, #8
    8a3c:	e12fff1e 	bx	lr
    8a40:	0044c000 	subeq	ip, r4, r0
    8a44:	0000046c 	andeq	r0, r0, ip, ror #8
    8a48:	0046bfff 	strdeq	fp, [r6], #-255	; 0xffffff01

00008a4c <vMem_alloc>:
    8a4c:	e24dd020 	sub	sp, sp, #32
    8a50:	e58d0004 	str	r0, [sp, #4]
    8a54:	e3a03000 	mov	r3, #0
    8a58:	e58d3018 	str	r3, [sp, #24]
    8a5c:	e3a03000 	mov	r3, #0
    8a60:	e58d3014 	str	r3, [sp, #20]
    8a64:	e3a03000 	mov	r3, #0
    8a68:	e58d3010 	str	r3, [sp, #16]
    8a6c:	e3a03000 	mov	r3, #0
    8a70:	e58d300c 	str	r3, [sp, #12]
    8a74:	e59f30f0 	ldr	r3, [pc, #240]	; 8b6c <vMem_alloc+0x120>
    8a78:	e58d301c 	str	r3, [sp, #28]
    8a7c:	ea00001d 	b	8af8 <vMem_alloc+0xac>
    8a80:	e59d301c 	ldr	r3, [sp, #28]
    8a84:	e5d33000 	ldrb	r3, [r3]
    8a88:	e3530000 	cmp	r3, #0
    8a8c:	1a000003 	bne	8aa0 <vMem_alloc+0x54>
    8a90:	e59d3018 	ldr	r3, [sp, #24]
    8a94:	e2833001 	add	r3, r3, #1
    8a98:	e58d3018 	str	r3, [sp, #24]
    8a9c:	ea000001 	b	8aa8 <vMem_alloc+0x5c>
    8aa0:	e3a03000 	mov	r3, #0
    8aa4:	e58d3018 	str	r3, [sp, #24]
    8aa8:	e59d2018 	ldr	r2, [sp, #24]
    8aac:	e59d3004 	ldr	r3, [sp, #4]
    8ab0:	e1520003 	cmp	r2, r3
    8ab4:	1a000009 	bne	8ae0 <vMem_alloc+0x94>
    8ab8:	e59d3004 	ldr	r3, [sp, #4]
    8abc:	e2633000 	rsb	r3, r3, #0
    8ac0:	e59d201c 	ldr	r2, [sp, #28]
    8ac4:	e0823003 	add	r3, r2, r3
    8ac8:	e58d3014 	str	r3, [sp, #20]
    8acc:	e59d200c 	ldr	r2, [sp, #12]
    8ad0:	e59d3004 	ldr	r3, [sp, #4]
    8ad4:	e0633002 	rsb	r3, r3, r2
    8ad8:	e58d3010 	str	r3, [sp, #16]
    8adc:	ea000009 	b	8b08 <vMem_alloc+0xbc>
    8ae0:	e59d300c 	ldr	r3, [sp, #12]
    8ae4:	e2833001 	add	r3, r3, #1
    8ae8:	e58d300c 	str	r3, [sp, #12]
    8aec:	e59d301c 	ldr	r3, [sp, #28]
    8af0:	e2833001 	add	r3, r3, #1
    8af4:	e58d301c 	str	r3, [sp, #28]
    8af8:	e59d201c 	ldr	r2, [sp, #28]
    8afc:	e59f306c 	ldr	r3, [pc, #108]	; 8b70 <vMem_alloc+0x124>
    8b00:	e1520003 	cmp	r2, r3
    8b04:	9affffdd 	bls	8a80 <vMem_alloc+0x34>
    8b08:	e59d3014 	ldr	r3, [sp, #20]
    8b0c:	e3530000 	cmp	r3, #0
    8b10:	1a000001 	bne	8b1c <vMem_alloc+0xd0>
    8b14:	e3a03000 	mov	r3, #0
    8b18:	ea000010 	b	8b60 <vMem_alloc+0x114>
    8b1c:	e59d3014 	ldr	r3, [sp, #20]
    8b20:	e58d301c 	str	r3, [sp, #28]
    8b24:	ea000005 	b	8b40 <vMem_alloc+0xf4>
    8b28:	e59d301c 	ldr	r3, [sp, #28]
    8b2c:	e3a02001 	mov	r2, #1
    8b30:	e5c32000 	strb	r2, [r3]
    8b34:	e59d301c 	ldr	r3, [sp, #28]
    8b38:	e2833001 	add	r3, r3, #1
    8b3c:	e58d301c 	str	r3, [sp, #28]
    8b40:	e59d2014 	ldr	r2, [sp, #20]
    8b44:	e59d3004 	ldr	r3, [sp, #4]
    8b48:	e0822003 	add	r2, r2, r3
    8b4c:	e59d301c 	ldr	r3, [sp, #28]
    8b50:	e1520003 	cmp	r2, r3
    8b54:	8afffff3 	bhi	8b28 <vMem_alloc+0xdc>
    8b58:	e59d3010 	ldr	r3, [sp, #16]
    8b5c:	e1a03603 	lsl	r3, r3, #12
    8b60:	e1a00003 	mov	r0, r3
    8b64:	e28dd020 	add	sp, sp, #32
    8b68:	e12fff1e 	bx	lr
    8b6c:	0044c000 	subeq	ip, r4, r0
    8b70:	0046bfff 	strdeq	fp, [r6], #-255	; 0xffffff01

00008b74 <vMem_free>:
    8b74:	e24dd018 	sub	sp, sp, #24
    8b78:	e58d0004 	str	r0, [sp, #4]
    8b7c:	e58d1000 	str	r1, [sp]
    8b80:	e59d3004 	ldr	r3, [sp, #4]
    8b84:	e1a03623 	lsr	r3, r3, #12
    8b88:	e58d3014 	str	r3, [sp, #20]
    8b8c:	e59d2014 	ldr	r2, [sp, #20]
    8b90:	e59d3000 	ldr	r3, [sp]
    8b94:	e0823003 	add	r3, r2, r3
    8b98:	e58d3010 	str	r3, [sp, #16]
    8b9c:	ea000009 	b	8bc8 <vMem_free+0x54>
    8ba0:	e59d3014 	ldr	r3, [sp, #20]
    8ba4:	e2833711 	add	r3, r3, #4456448	; 0x440000
    8ba8:	e2833903 	add	r3, r3, #49152	; 0xc000
    8bac:	e58d300c 	str	r3, [sp, #12]
    8bb0:	e59d300c 	ldr	r3, [sp, #12]
    8bb4:	e3a02000 	mov	r2, #0
    8bb8:	e5c32000 	strb	r2, [r3]
    8bbc:	e59d3014 	ldr	r3, [sp, #20]
    8bc0:	e2833001 	add	r3, r3, #1
    8bc4:	e58d3014 	str	r3, [sp, #20]
    8bc8:	e59d2014 	ldr	r2, [sp, #20]
    8bcc:	e59d3010 	ldr	r3, [sp, #16]
    8bd0:	e1520003 	cmp	r2, r3
    8bd4:	3afffff1 	bcc	8ba0 <vMem_free+0x2c>
    8bd8:	e28dd018 	add	sp, sp, #24
    8bdc:	e12fff1e 	bx	lr

00008be0 <init_mem>:
    8be0:	e52de004 	push	{lr}		; (str lr, [sp, #-4]!)
    8be4:	e24dd00c 	sub	sp, sp, #12
    8be8:	ebffff25 	bl	8884 <init_kern_translation_table>
    8bec:	ebffff76 	bl	89cc <init_occupation_table>
    8bf0:	ebffff0e 	bl	8830 <configure_mmu_C>
    8bf4:	ebfffefc 	bl	87ec <start_mmu_C>
    8bf8:	e3a00004 	mov	r0, #4
    8bfc:	ebffff92 	bl	8a4c <vMem_alloc>
    8c00:	e58d0004 	str	r0, [sp, #4]
    8c04:	e59d0004 	ldr	r0, [sp, #4]
    8c08:	e3a01004 	mov	r1, #4
    8c0c:	ebffffd8 	bl	8b74 <vMem_free>
    8c10:	e28dd00c 	add	sp, sp, #12
    8c14:	e8bd8000 	pop	{pc}

Disassembly of section .bss:

00008c18 <freelist>:
    8c18:	00000000 	andeq	r0, r0, r0

00008c1c <top>:
    8c1c:	00000000 	andeq	r0, r0, r0

00008c20 <heap_limit>:
    8c20:	00000000 	andeq	r0, r0, r0

00008c24 <first_process>:
    8c24:	00000000 	andeq	r0, r0, r0

00008c28 <init_process>:
    8c28:	00000000 	andeq	r0, r0, r0

00008c2c <current_process>:
    8c2c:	00000000 	andeq	r0, r0, r0

Disassembly of section .ARM.attributes:

00000000 <.ARM.attributes>:
   0:	00003141 	andeq	r3, r0, r1, asr #2
   4:	61656100 	cmnvs	r5, r0, lsl #2
   8:	01006962 	tsteq	r0, r2, ror #18
   c:	00000027 	andeq	r0, r0, r7, lsr #32
  10:	005a3605 	subseq	r3, sl, r5, lsl #12
  14:	01080706 	tsteq	r8, r6, lsl #14
  18:	020a0109 	andeq	r0, sl, #1073741826	; 0x40000002
  1c:	01140412 	tsteq	r4, r2, lsl r4
  20:	03170115 	tsteq	r7, #1073741829	; 0x40000005
  24:	011a0118 	tsteq	sl, r8, lsl r1
  28:	011c031b 	tsteq	ip, fp, lsl r3
  2c:	012c0122 	teqeq	ip, r2, lsr #2
  30:	Address 0x0000000000000030 is out of bounds.


Disassembly of section .comment:

00000000 <.comment>:
   0:	3a434347 	bcc	10d0d24 <__bss_end+0x10c80f4>
   4:	4e472820 	cdpmi	8, 4, cr2, cr7, cr0, {1}
   8:	34202955 	strtcc	r2, [r0], #-2389	; 0x955
   c:	312e372e 	teqcc	lr, lr, lsr #14
	...

Disassembly of section .debug_line:

00000000 <.debug_line>:
   0:	00000061 	andeq	r0, r0, r1, rrx
   4:	00200002 	eoreq	r0, r0, r2
   8:	01020000 	mrseq	r0, (UNDEF: 2)
   c:	000d0efb 	strdeq	r0, [sp], -fp
  10:	01010101 	tsteq	r1, r1, lsl #2
  14:	01000000 	mrseq	r0, (UNDEF: 0)
  18:	00010000 	andeq	r0, r1, r0
  1c:	74636576 	strbtvc	r6, [r3], #-1398	; 0x576
  20:	2e73726f 	cdpcs	2, 7, cr7, cr3, cr15, {3}
  24:	00000073 	andeq	r0, r0, r3, ror r0
  28:	05000000 	streq	r0, [r0, #-0]
  2c:	00800002 	addeq	r0, r0, r2
  30:	2f2f1900 	svccs	0x002f1900
  34:	2f2f2f2f 	svccs	0x002f2f2f
  38:	080b032f 	stmdaeq	fp, {r0, r1, r2, r3, r5, r8, r9}
  3c:	2f2f2f20 	svccs	0x002f2f20
  40:	2f322f2f 	svccs	0x00322f2f
  44:	2f2f322f 	svccs	0x002f322f
  48:	302f2f31 	eorcc	r2, pc, r1, lsr pc	; <UNPREDICTABLE>
  4c:	2f2f2f30 	svccs	0x002f2f30
  50:	322f2f2f 	eorcc	r2, pc, #188	; 0xbc
  54:	322f322f 	eorcc	r3, pc, #-268435454	; 0xf0000002
  58:	322f322f 	eorcc	r3, pc, #-268435454	; 0xf0000002
  5c:	3132322f 	teqcc	r2, pc, lsr #4
  60:	01000202 	tsteq	r0, r2, lsl #4
  64:	00005501 	andeq	r5, r0, r1, lsl #10
  68:	1f000200 	svcne	0x00000200
  6c:	02000000 	andeq	r0, r0, #0
  70:	0d0efb01 	vstreq	d15, [lr, #-4]
  74:	01010100 	mrseq	r0, (UNDEF: 17)
  78:	00000001 	andeq	r0, r0, r1
  7c:	01000001 	tsteq	r0, r1
  80:	72656b00 	rsbvc	r6, r5, #0
  84:	2e6c656e 	cdpcs	5, 6, cr6, cr12, cr14, {3}
  88:	00000063 	andeq	r0, r0, r3, rrx
  8c:	05000000 	streq	r0, [r0, #-0]
  90:	0080d002 	addeq	sp, r0, r2
  94:	002f1800 	eoreq	r1, pc, r0, lsl #16
  98:	4c010402 	cfstrsmi	mvf0, [r1], {2}
  9c:	01040200 	mrseq	r0, R12_usr
  a0:	002f3468 	eoreq	r3, pc, r8, ror #8
  a4:	4c010402 	cfstrsmi	mvf0, [r1], {2}
  a8:	01040200 	mrseq	r0, R12_usr
  ac:	4b4b3668 	blmi	12cda54 <__bss_end+0x12c4e24>
  b0:	83832f2f 	orrhi	r2, r3, #188	; 0xbc
  b4:	01040200 	mrseq	r0, R12_usr
  b8:	0008022f 	andeq	r0, r8, pc, lsr #4
  bc:	00590101 	subseq	r0, r9, r1, lsl #2
  c0:	00020000 	andeq	r0, r2, r0
  c4:	00000021 	andeq	r0, r0, r1, lsr #32
  c8:	0efb0102 	cdpeq	1, 15, cr0, cr11, cr2, {0}
  cc:	0101000d 	tsteq	r1, sp
  d0:	00000101 	andeq	r0, r0, r1, lsl #2
  d4:	00000100 	andeq	r0, r0, r0, lsl #2
  d8:	68700001 	ldmdavs	r0!, {r0}^
  dc:	6c6c4179 	stfvse	f4, [ip], #-484	; 0xfffffe1c
  e0:	632e636f 	teqvs	lr, #-1140850687	; 0xbc000001
  e4:	00000000 	andeq	r0, r0, r0
  e8:	02050000 	andeq	r0, r5, #0
  ec:	00008154 	andeq	r8, r0, r4, asr r1
  f0:	67010c03 	strvs	r0, [r1, -r3, lsl #24]
  f4:	2f2f2f4c 	svccs	0x002f2f4c
  f8:	01040200 	mrseq	r0, R12_usr
  fc:	0402002c 	streq	r0, [r2], #-44	; 0x2c
 100:	064a0602 	strbeq	r0, [sl], -r2, lsl #12
 104:	f44b4b86 			; <UNDEFINED> instruction: 0xf44b4b86
 108:	2f4c4cbb 	svccs	0x004c4cbb
 10c:	833083da 	teqhi	r0, #1744830467	; 0x68000003
 110:	67864b67 	strvs	r4, [r6, r7, ror #22]
 114:	08029f67 	stmdaeq	r2, {r0, r1, r2, r5, r6, r8, r9, sl, fp, ip, pc}
 118:	4b010100 	blmi	40520 <__bss_end+0x378f0>
 11c:	02000000 	andeq	r0, r0, #0
 120:	00001b00 	andeq	r1, r0, r0, lsl #22
 124:	fb010200 	blx	4092e <__bss_end+0x37cfe>
 128:	01000d0e 	tsteq	r0, lr, lsl #26
 12c:	00010101 	andeq	r0, r1, r1, lsl #2
 130:	00010000 	andeq	r0, r1, r0
 134:	68000100 	stmdavs	r0, {r8}
 138:	00632e77 	rsbeq	r2, r3, r7, ror lr
 13c:	00000000 	andeq	r0, r0, r0
 140:	8c020500 	cfstr32hi	mvfx0, [r2], {-0}
 144:	03000082 	movweq	r0, #130	; 0x82
 148:	674b011c 	smlaldvs	r0, fp, ip, r1
 14c:	03676867 	cmneq	r7, #6750208	; 0x670000
 150:	672f9e09 	strvs	r9, [pc, -r9, lsl #28]!
 154:	51672f4e 	cmnpl	r7, lr, asr #30
 158:	6767674f 	strbvs	r6, [r7, -pc, asr #14]!
 15c:	67676969 	strbvs	r6, [r7, -r9, ror #18]!
 160:	a068696a 	rsbge	r6, r8, sl, ror #18
 164:	00100267 	andseq	r0, r0, r7, ror #4
 168:	00b80101 	adcseq	r0, r8, r1, lsl #2
 16c:	00020000 	andeq	r0, r2, r0
 170:	00000029 	andeq	r0, r0, r9, lsr #32
 174:	0efb0102 	cdpeq	1, 15, cr0, cr11, cr2, {0}
 178:	0101000d 	tsteq	r1, sp
 17c:	00000101 	andeq	r0, r0, r1, lsl #2
 180:	00000100 	andeq	r0, r0, r0, lsl #2
 184:	63730001 	cmnvs	r3, #1
 188:	2e646568 	cdpcs	5, 6, cr6, cr4, cr8, {3}
 18c:	00000063 	andeq	r0, r0, r3, rrx
 190:	68637300 	stmdavs	r3!, {r8, r9, ip, sp, lr}^
 194:	682e6465 	stmdavs	lr!, {r0, r2, r5, r6, sl, sp, lr}
 198:	00000000 	andeq	r0, r0, r0
 19c:	02050000 	andeq	r0, r5, #0
 1a0:	000083c8 	andeq	r8, r0, r8, asr #7
 1a4:	30a02f19 	adccc	r2, r0, r9, lsl pc
 1a8:	30858583 	addcc	r8, r5, r3, lsl #11
 1ac:	4d2f8485 	cfstrsmi	mvf8, [pc, #-532]!	; ffffffa0 <__bss_end+0xffff7370>
 1b0:	14303013 	ldrtne	r3, [r0], #-19
 1b4:	676767a0 	strbvs	r6, [r7, -r0, lsr #15]!
 1b8:	2f4c6767 	svccs	0x004c6767
 1bc:	684c2f83 	stmdavs	ip, {r0, r1, r7, r8, r9, sl, fp, sp}^
 1c0:	020069d7 	andeq	r6, r0, #3522560	; 0x35c000
 1c4:	66060204 	strvs	r0, [r6], -r4, lsl #4
 1c8:	01040200 	mrseq	r0, R12_usr
 1cc:	839f0666 	orrshi	r0, pc, #106954752	; 0x6600000
 1d0:	4bf5a04c 	blmi	ffd68308 <__bss_end+0xffd5f6d8>
 1d4:	00878384 	addeq	r8, r7, r4, lsl #7
 1d8:	06020402 	streq	r0, [r2], -r2, lsl #8
 1dc:	04020082 	streq	r0, [r2], #-130	; 0x82
 1e0:	83066601 	movwhi	r6, #26113	; 0x6601
 1e4:	68679f6a 	stmdavs	r7!, {r1, r3, r5, r6, r8, r9, sl, fp, ip, pc}^
 1e8:	2f4c8313 	svccs	0x004c8313
 1ec:	0402002f 	streq	r0, [r2], #-47	; 0x2f
 1f0:	9fbd9d01 	svcls	0x00bd9d01
 1f4:	2fa1134d 	svccs	0x00a1134d
 1f8:	8330312f 	teqhi	r0, #-1073741813	; 0xc000000b
 1fc:	84318484 	ldrthi	r8, [r1], #-1156	; 0x484
 200:	9fa02f33 	svcls	0x00a02f33
 204:	0a03a183 	beq	e8818 <__bss_end+0xdfbe8>
 208:	004d154a 	subeq	r1, sp, sl, asr #10
 20c:	06020402 	streq	r0, [r2], -r2, lsl #8
 210:	04020082 	streq	r0, [r2], #-130	; 0x82
 214:	83066601 	movwhi	r6, #26113	; 0x6601
 218:	9fbb4b85 	svcls	0x00bb4b85
 21c:	0a039f84 	beq	e8034 <__bss_end+0xdf404>
 220:	000a022e 	andeq	r0, sl, lr, lsr #4
 224:	01390101 	teqeq	r9, r1, lsl #2
 228:	00020000 	andeq	r0, r2, r0
 22c:	0000006f 	andeq	r0, r0, pc, rrx
 230:	0efb0102 	cdpeq	1, 15, cr0, cr11, cr2, {0}
 234:	0101000d 	tsteq	r1, sp
 238:	00000101 	andeq	r0, r0, r1, lsl #2
 23c:	00000100 	andeq	r0, r0, r0, lsl #2
 240:	706f2f01 	rsbvc	r2, pc, r1, lsl #30
 244:	69342f74 	ldmdbvs	r4!, {r2, r4, r5, r6, r8, r9, sl, fp, sp}
 248:	534c2d66 	movtpl	r2, #52582	; 0xcd66
 24c:	6d72612f 	ldfvse	f6, [r2, #-188]!	; 0xffffff44
 250:	6e6f6e2d 	cdpvs	14, 6, cr6, cr15, cr13, {1}
 254:	61652d65 	cmnvs	r5, r5, ror #26
 258:	672d6962 	strvs	r6, [sp, -r2, ror #18]!
 25c:	6c2f6363 	stcvs	3, cr6, [pc], #-396	; d8 <_start-0x7f28>
 260:	672f6269 	strvs	r6, [pc, -r9, ror #4]!
 264:	612f6363 	teqvs	pc, r3, ror #6
 268:	6e2d6d72 	mcrvs	13, 1, r6, cr13, cr2, {3}
 26c:	2d656e6f 	stclcs	14, cr6, [r5, #-444]!	; 0xfffffe44
 270:	69626165 	stmdbvs	r2!, {r0, r2, r5, r6, r8, sp, lr}^
 274:	372e342f 	strcc	r3, [lr, -pc, lsr #8]!
 278:	692f312e 	stmdbvs	pc!, {r1, r2, r3, r5, r8, ip, sp}	; <UNPREDICTABLE>
 27c:	756c636e 	strbvc	r6, [ip, #-878]!	; 0x36e
 280:	00006564 	andeq	r6, r0, r4, ror #10
 284:	6d656d76 	stclvs	13, cr6, [r5, #-472]!	; 0xfffffe28
 288:	0000632e 	andeq	r6, r0, lr, lsr #6
 28c:	74730000 	ldrbtvc	r0, [r3], #-0
 290:	746e6964 	strbtvc	r6, [lr], #-2404	; 0x964
 294:	6363672d 	cmnvs	r3, #11796480	; 0xb40000
 298:	0100682e 	tsteq	r0, lr, lsr #16
 29c:	00000000 	andeq	r0, r0, r0
 2a0:	87ec0205 	strbhi	r0, [ip, r5, lsl #4]!
 2a4:	16030000 	strne	r0, [r3], -r0
 2a8:	302f3001 	eorcc	r3, pc, r1
 2ac:	31302f4b 	teqcc	r0, fp, asr #30
 2b0:	682f4c68 	stmdavs	pc!, {r3, r5, r6, sl, fp, lr}	; <UNPREDICTABLE>
 2b4:	3030312f 	eorscc	r3, r0, pc, lsr #2
 2b8:	674c4b4d 	strbvs	r4, [ip, -sp, asr #22]
 2bc:	514b699f 			; <UNDEFINED> instruction: 0x514b699f
 2c0:	846a4e4d 	strbthi	r4, [sl], #-3661	; 0xe4d
 2c4:	a185856a 	orrge	r8, r5, sl, ror #10
 2c8:	01040200 	mrseq	r0, R12_usr
 2cc:	84066606 	strhi	r6, [r6], #-1542	; 0x606
 2d0:	690369bf 	stmdbvs	r3, {r0, r1, r2, r3, r4, r5, r7, r8, fp, sp, lr}
 2d4:	04020066 	streq	r0, [r2], #-102	; 0x66
 2d8:	06660601 	strbteq	r0, [r6], -r1, lsl #12
 2dc:	83661b03 	cmnhi	r6, #3072	; 0xc00
 2e0:	665c03a0 	ldrbvs	r0, [ip], -r0, lsr #7
 2e4:	01040200 	mrseq	r0, R12_usr
 2e8:	03066606 	movweq	r6, #26118	; 0x6606
 2ec:	bc2f8227 	sfmlt	f0, 1, [pc], #-156	; 258 <_start-0x7da8>
 2f0:	83684b30 	cmnhi	r8, #49152	; 0xc000
 2f4:	78036885 	stmdavc	r3, {r0, r2, r7, fp, sp, lr}
 2f8:	04020066 	streq	r0, [r2], #-102	; 0x66
 2fc:	06660601 	strbteq	r0, [r6], -r1, lsl #12
 300:	a1820b03 	orrge	r0, r2, r3, lsl #22
 304:	4b4b4b4c 	blmi	12d303c <__bss_end+0x12ca40c>
 308:	8583684b 	strhi	r6, [r3, #2123]	; 0x84b
 30c:	839f834d 	orrshi	r8, pc, #872415233	; 0x34000001
 310:	66720330 			; <UNDEFINED> instruction: 0x66720330
 314:	01040200 	mrseq	r0, R12_usr
 318:	03066606 	movweq	r6, #26118	; 0x6606
 31c:	02008211 	andeq	r8, r0, #268435457	; 0x10000001
 320:	66060104 	strvs	r0, [r6], -r4, lsl #2
 324:	02004c06 	andeq	r4, r0, #1536	; 0x600
 328:	00670204 	rsbeq	r0, r7, r4, lsl #4
 32c:	65020402 	strvs	r0, [r2, #-1026]	; 0x402
 330:	01040200 	mrseq	r0, R12_usr
 334:	be066606 	cfmadd32lt	mvax0, mvfx6, mvfx6, mvfx6
 338:	6767a14b 	strbvs	sl, [r7, -fp, asr #2]!
 33c:	04020083 	streq	r0, [r2], #-131	; 0x83
 340:	02003002 	andeq	r3, r0, #2
 344:	00830204 	addeq	r0, r3, r4, lsl #4
 348:	63020402 	movwvs	r0, #9218	; 0x2402
 34c:	01040200 	mrseq	r0, R12_usr
 350:	87066606 	strhi	r6, [r6, -r6, lsl #12]
 354:	4c4a3003 	mcrrmi	0, 0, r3, sl, cr3
 358:	2f2f2f2f 	svccs	0x002f2f2f
 35c:	04026767 	streq	r6, [r2], #-1895	; 0x767
 360:	Address 0x0000000000000360 is out of bounds.


Disassembly of section .debug_info:

00000000 <.debug_info>:
   0:	00000056 	andeq	r0, r0, r6, asr r0
   4:	00000002 	andeq	r0, r0, r2
   8:	01040000 	mrseq	r0, (UNDEF: 4)
   c:	00000000 	andeq	r0, r0, r0
  10:	00008000 	andeq	r8, r0, r0
  14:	000080d0 	ldrdeq	r8, [r0], -r0
  18:	74636576 	strbtvc	r6, [r3], #-1398	; 0x576
  1c:	2e73726f 	cdpcs	2, 7, cr7, cr3, cr15, {3}
  20:	682f0073 	stmdavs	pc!, {r0, r1, r4, r5, r6}	; <UNPREDICTABLE>
  24:	2f656d6f 	svccs	0x00656d6f
  28:	6c6c616c 	stfvse	f6, [ip], #-432	; 0xfffffe50
  2c:	6c6e6961 	stclvs	9, cr6, [lr], #-388	; 0xfffffe7c
  30:	442f7561 	strtmi	r7, [pc], #-1377	; 38 <_start-0x7fc8>
  34:	6d75636f 	ldclvs	3, cr6, [r5, #-444]!	; 0xfffffe44
  38:	73746e65 	cmnvc	r4, #1616	; 0x650
  3c:	7469672f 	strbtvc	r6, [r9], #-1839	; 0x72f
  40:	7865682f 	stmdavc	r5!, {r0, r1, r2, r3, r5, fp, sp, lr}^
  44:	78616d61 	stmdavc	r1!, {r0, r5, r6, r8, sl, fp, sp, lr}^
  48:	00736f2d 	rsbseq	r6, r3, sp, lsr #30
  4c:	20554e47 	subscs	r4, r5, r7, asr #28
  50:	32205341 	eorcc	r5, r0, #67108865	; 0x4000001
  54:	0032322e 	eorseq	r3, r2, lr, lsr #4
  58:	00df8001 	sbcseq	r8, pc, r1
  5c:	00020000 	andeq	r0, r2, r0
  60:	00000014 	andeq	r0, r0, r4, lsl r0
  64:	00950104 	addseq	r0, r5, r4, lsl #2
  68:	10010000 	andne	r0, r1, r0
  6c:	19000000 	stmdbne	r0, {}	; <UNPREDICTABLE>
  70:	d0000000 	andle	r0, r0, r0
  74:	54000080 	strpl	r0, [r0], #-128	; 0x80
  78:	65000081 	strvs	r0, [r0, #-129]	; 0x81
  7c:	02000000 	andeq	r0, r0, #0
  80:	00450601 	subeq	r0, r5, r1, lsl #12
  84:	02020000 	andeq	r0, r2, #0
  88:	0000a105 	andeq	sl, r0, r5, lsl #2
  8c:	05040200 	streq	r0, [r4, #-512]	; 0x200
  90:	0000008c 	andeq	r0, r0, ip, lsl #1
  94:	87050802 	strhi	r0, [r5, -r2, lsl #16]
  98:	02000000 	andeq	r0, r0, #0
  9c:	00430801 	subeq	r0, r3, r1, lsl #16
  a0:	02020000 	andeq	r0, r2, #0
  a4:	00005107 	andeq	r5, r0, r7, lsl #2
  a8:	07040200 	streq	r0, [r4, -r0, lsl #4]
  ac:	00000075 	andeq	r0, r0, r5, ror r0
  b0:	70070802 	andvc	r0, r7, r2, lsl #16
  b4:	03000000 	movweq	r0, #0
  b8:	6e690504 	cdpvs	5, 6, cr0, cr9, cr4, {0}
  bc:	04020074 	streq	r0, [r2], #-116	; 0x74
  c0:	00007a07 	andeq	r7, r0, r7, lsl #20
  c4:	64010400 	strvs	r0, [r1], #-1024	; 0x400
  c8:	01000000 	mrseq	r0, (UNDEF: 0)
  cc:	0080d006 	addeq	sp, r0, r6
  d0:	0080ec00 	addeq	lr, r0, r0, lsl #24
  d4:	00000000 	andeq	r0, r0, r0
  d8:	00930100 	addseq	r0, r3, r0, lsl #2
  dc:	00050000 	andeq	r0, r5, r0
  e0:	01000000 	mrseq	r0, (UNDEF: 0)
  e4:	00005d08 	andeq	r5, r0, r8, lsl #26
  e8:	7c910200 	lfmvc	f0, 4, [r1], {0}
  ec:	6a010400 	bvs	410f4 <__bss_end+0x384c4>
  f0:	01000000 	mrseq	r0, (UNDEF: 0)
  f4:	0080ec11 	addeq	lr, r0, r1, lsl ip
  f8:	00810800 	addeq	r0, r1, r0, lsl #16
  fc:	00002000 	andeq	r2, r0, r0
 100:	00bb0100 	adcseq	r0, fp, r0, lsl #2
 104:	05050000 	streq	r0, [r5, #-0]
 108:	01000000 	mrseq	r0, (UNDEF: 0)
 10c:	00005d13 	andeq	r5, r0, r3, lsl sp
 110:	7c910200 	lfmvc	f0, 4, [r1], {0}
 114:	0a010600 	beq	4191c <__bss_end+0x38cec>
 118:	01000000 	mrseq	r0, (UNDEF: 0)
 11c:	005d011e 	subseq	r0, sp, lr, lsl r1
 120:	81080000 	mrshi	r0, (UNDEF: 8)
 124:	81540000 	cmphi	r4, r0
 128:	00400000 	subeq	r0, r0, r0
 12c:	07010000 	streq	r0, [r1, -r0]
 130:	20010061 	andcs	r0, r1, r1, rrx
 134:	0000005d 	andeq	r0, r0, sp, asr r0
 138:	00749102 	rsbseq	r9, r4, r2, lsl #2
 13c:	00015e00 	andeq	r5, r1, r0, lsl #28
 140:	8e000200 	cdphi	2, 0, cr0, cr0, cr0, {0}
 144:	04000000 	streq	r0, [r0], #-0
 148:	00009501 	andeq	r9, r0, r1, lsl #10
 14c:	00ab0100 	adceq	r0, fp, r0, lsl #2
 150:	00190000 	andseq	r0, r9, r0
 154:	81540000 	cmphi	r4, r0
 158:	828c0000 	addhi	r0, ip, #0
 15c:	00be0000 	adcseq	r0, lr, r0
 160:	66020000 	strvs	r0, [r2], -r0
 164:	0108006c 	tsteq	r8, ip, rrx
 168:	00004d03 	andeq	r4, r0, r3, lsl #26
 16c:	00d90300 	sbcseq	r0, r9, r0, lsl #6
 170:	04010000 	streq	r0, [r1], #-0
 174:	0000004d 	andeq	r0, r0, sp, asr #32
 178:	03002302 	movweq	r2, #770	; 0x302
 17c:	000001ad 	andeq	r0, r0, sp, lsr #3
 180:	00530501 	subseq	r0, r3, r1, lsl #10
 184:	23020000 	movwcs	r0, #8192	; 0x2000
 188:	04040004 	streq	r0, [r4], #-4
 18c:	00000025 	andeq	r0, r0, r5, lsr #32
 190:	7a070405 	bvc	1c11ac <__bss_end+0x1b857c>
 194:	06000000 	streq	r0, [r0], -r0
 198:	0000de01 	andeq	sp, r0, r1, lsl #28
 19c:	010c0100 	mrseq	r0, (UNDEF: 28)
 1a0:	0000009f 	muleq	r0, pc, r0	; <UNPREDICTABLE>
 1a4:	00008154 	andeq	r8, r0, r4, asr r1
 1a8:	00008208 	andeq	r8, r0, r8, lsl #4
 1ac:	0000006c 	andeq	r0, r0, ip, rrx
 1b0:	00009f01 	andeq	r9, r0, r1, lsl #30
 1b4:	01ad0700 			; <UNDEFINED> instruction: 0x01ad0700
 1b8:	0c010000 	stceq	0, cr0, [r1], {-0}
 1bc:	00000053 	andeq	r0, r0, r3, asr r0
 1c0:	08749102 	ldmdaeq	r4!, {r1, r8, ip, pc}^
 1c4:	0e010066 	cdpeq	0, 0, cr0, cr1, cr6, {3}
 1c8:	0000004d 	andeq	r0, r0, sp, asr #32
 1cc:	c9095401 	stmdbgt	r9, {r0, sl, ip, lr}
 1d0:	01000000 	mrseq	r0, (UNDEF: 0)
 1d4:	0000a10e 	andeq	sl, r0, lr, lsl #2
 1d8:	00550100 	subseq	r0, r5, r0, lsl #2
 1dc:	0404040a 	streq	r0, [r4], #-1034	; 0x40a
 1e0:	0000004d 	andeq	r0, r0, sp, asr #32
 1e4:	00ed010b 	rsceq	r0, sp, fp, lsl #2
 1e8:	22010000 	andcs	r0, r1, #0
 1ec:	00820801 	addeq	r0, r2, r1, lsl #16
 1f0:	00825000 	addeq	r5, r2, r0
 1f4:	00009800 	andeq	r9, r0, r0, lsl #16
 1f8:	00e90100 	rsceq	r0, r9, r0, lsl #2
 1fc:	700c0000 	andvc	r0, ip, r0
 200:	01007274 	tsteq	r0, r4, ror r2
 204:	00009f22 	andeq	r9, r0, r2, lsr #30
 208:	74910200 	ldrvc	r0, [r1], #512	; 0x200
 20c:	0001ad07 	andeq	sl, r1, r7, lsl #26
 210:	53220100 	teqpl	r2, #0
 214:	02000000 	andeq	r0, r0, #0
 218:	66087091 			; <UNDEFINED> instruction: 0x66087091
 21c:	4d240100 	stfmis	f0, [r4, #-0]
 220:	01000000 	mrseq	r0, (UNDEF: 0)
 224:	010b0054 	qaddeq	r0, r4, fp
 228:	00000106 	andeq	r0, r0, r6, lsl #2
 22c:	50012c01 	andpl	r2, r1, r1, lsl #24
 230:	8c000082 	stchi	0, cr0, [r0], {130}	; 0x82
 234:	c4000082 	strgt	r0, [r0], #-130	; 0x82
 238:	01000000 	mrseq	r0, (UNDEF: 0)
 23c:	00000120 	andeq	r0, r0, r0, lsr #2
 240:	0000ce07 	andeq	ip, r0, r7, lsl #28
 244:	202c0100 	eorcs	r0, ip, r0, lsl #2
 248:	02000001 	andeq	r0, r0, #1
 24c:	bf077c91 	svclt	0x00077c91
 250:	01000000 	mrseq	r0, (UNDEF: 0)
 254:	0000532c 	andeq	r5, r0, ip, lsr #6
 258:	78910200 	ldmvc	r1, {r9}
 25c:	26040400 	strcs	r0, [r4], -r0, lsl #8
 260:	05000001 	streq	r0, [r0, #-1]
 264:	004c0801 	subeq	r0, ip, r1, lsl #16
 268:	74080000 	strvc	r0, [r8], #-0
 26c:	0100706f 	tsteq	r0, pc, rrx
 270:	00012008 	andeq	r2, r1, r8
 274:	1c030500 	cfstr32ne	mvfx0, [r3], {-0}
 278:	0900008c 	stmdbeq	r0, {r2, r3, r7}
 27c:	000000fb 	strdeq	r0, [r0], -fp
 280:	01200901 	teqeq	r0, r1, lsl #18
 284:	03050000 	movweq	r0, #20480	; 0x5000
 288:	00008c20 	andeq	r8, r0, r0, lsr #24
 28c:	0000b60d 	andeq	fp, r0, sp, lsl #12
 290:	4d060100 	stfmis	f0, [r6, #-0]
 294:	01000000 	mrseq	r0, (UNDEF: 0)
 298:	8c180305 	ldchi	3, cr0, [r8], {5}
 29c:	b8000000 	stmdalt	r0, {}	; <UNPREDICTABLE>
 2a0:	02000000 	andeq	r0, r0, #0
 2a4:	00015e00 	andeq	r5, r1, r0, lsl #28
 2a8:	95010400 	strls	r0, [r1, #-1024]	; 0x400
 2ac:	01000000 	mrseq	r0, (UNDEF: 0)
 2b0:	00000114 	andeq	r0, r0, r4, lsl r1
 2b4:	00000019 	andeq	r0, r0, r9, lsl r0
 2b8:	0000828c 	andeq	r8, r0, ip, lsl #5
 2bc:	000083c8 	andeq	r8, r0, r8, asr #7
 2c0:	0000011b 	andeq	r0, r0, fp, lsl r1
 2c4:	51070202 	tstpl	r7, r2, lsl #4
 2c8:	02000000 	andeq	r0, r0, #0
 2cc:	007a0704 	rsbseq	r0, sl, r4, lsl #14
 2d0:	01020000 	mrseq	r0, (UNDEF: 2)
 2d4:	00004308 	andeq	r4, r0, r8, lsl #6
 2d8:	20010300 	andcs	r0, r1, r0, lsl #6
 2dc:	01000001 	tsteq	r0, r1
 2e0:	00828c1c 	addeq	r8, r2, ip, lsl ip
 2e4:	0082d800 	addeq	sp, r2, r0, lsl #16
 2e8:	0000e400 	andeq	lr, r0, r0, lsl #8
 2ec:	00610100 	rsbeq	r0, r1, r0, lsl #2
 2f0:	72040000 	andvc	r0, r4, #0
 2f4:	1e010078 	mcrne	0, 0, r0, cr1, cr8, {3}
 2f8:	0000002c 	andeq	r0, r0, ip, lsr #32
 2fc:	00749102 	rsbseq	r9, r4, r2, lsl #2
 300:	01420105 	cmpeq	r2, r5, lsl #2
 304:	2b010000 	blcs	4030c <__bss_end+0x376dc>
 308:	000082d8 	ldrdeq	r8, [r0], -r8	; <UNPREDICTABLE>
 30c:	000082f0 	strdeq	r8, [r0], -r0
 310:	00000110 	andeq	r0, r0, r0, lsl r1
 314:	19010501 	stmdbne	r1, {r0, r8, sl}
 318:	01000001 	tsteq	r0, r1
 31c:	0082f031 	addeq	pc, r2, r1, lsr r0	; <UNPREDICTABLE>
 320:	00830800 	addeq	r0, r3, r0, lsl #16
 324:	00013000 	andeq	r3, r1, r0
 328:	01060100 	mrseq	r0, (UNDEF: 22)
 32c:	0000013a 	andeq	r0, r0, sl, lsr r1
 330:	83083a01 	movwhi	r3, #35329	; 0x8a01
 334:	83c80000 	bichi	r0, r8, #0
 338:	01500000 	cmpeq	r0, r0
 33c:	04010000 	streq	r0, [r1], #-0
 340:	01006172 	tsteq	r0, r2, ror r1
 344:	00002c3c 	andeq	r2, r0, ip, lsr ip
 348:	74910200 	ldrvc	r0, [r1], #512	; 0x200
 34c:	00787204 	rsbseq	r7, r8, r4, lsl #4
 350:	002c3d01 	eoreq	r3, ip, r1, lsl #26
 354:	91020000 	mrsls	r0, (UNDEF: 2)
 358:	4e000070 	mcrmi	0, 0, r0, cr0, cr0, {3}
 35c:	02000003 	andeq	r0, r0, #3
 360:	0001d000 	andeq	sp, r1, r0
 364:	95010400 	strls	r0, [r1, #-1024]	; 0x400
 368:	01000000 	mrseq	r0, (UNDEF: 0)
 36c:	0000016b 	andeq	r0, r0, fp, ror #2
 370:	00000019 	andeq	r0, r0, r9, lsl r0
 374:	000083c8 	andeq	r8, r0, r8, asr #7
 378:	000087ec 	andeq	r8, r0, ip, ror #15
 37c:	0000016a 	andeq	r0, r0, sl, ror #2
 380:	00025802 	andeq	r5, r2, r2, lsl #16
 384:	300b0200 	andcc	r0, fp, r0, lsl #4
 388:	03000000 	movweq	r0, #0
 38c:	00003604 	andeq	r3, r0, r4, lsl #12
 390:	05010400 	streq	r0, [r1, #-1024]	; 0x400
 394:	00000186 	andeq	r0, r0, r6, lsl #3
 398:	630e0201 	movwvs	r0, #57857	; 0xe201
 39c:	06000000 	streq	r0, [r0], -r0
 3a0:	0057454e 	subseq	r4, r7, lr, asr #10
 3a4:	02060700 	andeq	r0, r6, #0
 3a8:	07010000 	streq	r0, [r1, -r0]
 3ac:	000001cf 	andeq	r0, r0, pc, asr #3
 3b0:	02380702 	eorseq	r0, r8, #524288	; 0x80000
 3b4:	07030000 	streq	r0, [r3, -r0]
 3b8:	0000019c 	muleq	r0, ip, r1
 3bc:	5f080004 	svcpl	0x00080004
 3c0:	08000002 	stmdaeq	r0, {r1}
 3c4:	008c1002 	addeq	r1, ip, r2
 3c8:	61090000 	mrsvs	r0, (UNDEF: 9)
 3cc:	02006772 	andeq	r6, r0, #29884416	; 0x1c80000
 3d0:	00008c11 	andeq	r8, r0, r1, lsl ip
 3d4:	00230200 	eoreq	r0, r3, r0, lsl #4
 3d8:	0000d90a 	andeq	sp, r0, sl, lsl #18
 3dc:	8e120200 	cdphi	2, 1, cr0, cr2, cr0, {0}
 3e0:	02000000 	andeq	r0, r0, #0
 3e4:	0b000423 	bleq	1478 <_start-0x6b88>
 3e8:	63040304 	movwvs	r0, #17156	; 0x4304
 3ec:	08000000 	stmdaeq	r0, {}	; <UNPREDICTABLE>
 3f0:	00000225 	andeq	r0, r0, r5, lsr #4
 3f4:	f3150218 	vqsub.u16	d0, d5, d8
 3f8:	0a000000 	beq	400 <_start-0x7c00>
 3fc:	000001b2 			; <UNDEFINED> instruction: 0x000001b2
 400:	00251602 	eoreq	r1, r5, r2, lsl #12
 404:	23020000 	movwcs	r0, #8192	; 0x2000
 408:	72610900 	rsbvc	r0, r1, #0
 40c:	17020067 	strne	r0, [r2, -r7, rrx]
 410:	0000008e 	andeq	r0, r0, lr, lsl #1
 414:	09042302 	stmdbeq	r4, {r1, r8, r9, sp}
 418:	02007073 	andeq	r7, r0, #115	; 0x73
 41c:	00008c18 	andeq	r8, r0, r8, lsl ip
 420:	08230200 	stmdaeq	r3!, {r9}
 424:	00726c09 	rsbseq	r6, r2, r9, lsl #24
 428:	008c1902 	addeq	r1, ip, r2, lsl #18
 42c:	23020000 	movwcs	r0, #8192	; 0x2000
 430:	021f0a0c 	andseq	r0, pc, #49152	; 0xc000
 434:	1a020000 	bne	8043c <__bss_end+0x7780c>
 438:	00000038 	andeq	r0, r0, r8, lsr r0
 43c:	0a102302 	beq	40904c <__bss_end+0x40041c>
 440:	000000d9 	ldrdeq	r0, [r0], -r9
 444:	00f31b02 	rscseq	r1, r3, r2, lsl #22
 448:	23020000 	movwcs	r0, #8192	; 0x2000
 44c:	04030014 	streq	r0, [r3], #-20
 450:	00000094 	muleq	r0, r4, r0
 454:	0173010c 	cmneq	r3, ip, lsl #2
 458:	08010000 	stmdaeq	r1, {}	; <UNPREDICTABLE>
 45c:	000083c8 	andeq	r8, r0, r8, asr #7
 460:	00008444 	andeq	r8, r0, r4, asr #8
 464:	0000017c 	andeq	r0, r0, ip, ror r1
 468:	00012201 	andeq	r2, r1, r1, lsl #4
 46c:	52010d00 	andpl	r0, r1, #0
 470:	01000002 	tsteq	r0, r2
 474:	00012214 	andeq	r2, r1, r4, lsl r2
 478:	000e0100 	andeq	r0, lr, r0, lsl #2
 47c:	05040f00 	streq	r0, [r4, #-3840]	; 0xf00
 480:	00746e69 	rsbseq	r6, r4, r9, ror #28
 484:	01c40110 	biceq	r0, r4, r0, lsl r1
 488:	1e010000 	cdpne	0, 0, cr0, cr1, cr0, {0}
 48c:	00008444 	andeq	r8, r0, r4, asr #8
 490:	0000844c 	andeq	r8, r0, ip, asr #8
 494:	01007d02 	tsteq	r0, r2, lsl #26
 498:	00000151 	andeq	r0, r0, r1, asr r1
 49c:	01e2010d 	mvneq	r0, sp, lsl #2
 4a0:	22010000 	andcs	r0, r1, #0
 4a4:	00000122 	andeq	r0, r0, r2, lsr #2
 4a8:	00000e01 	andeq	r0, r0, r1, lsl #28
 4ac:	02650111 	rsbeq	r0, r5, #1073741828	; 0x40000004
 4b0:	26010000 	strcs	r0, [r1], -r0
 4b4:	00844c01 	addeq	r4, r4, r1, lsl #24
 4b8:	0084a400 	addeq	sl, r4, r0, lsl #8
 4bc:	00019c00 	andeq	r9, r1, r0, lsl #24
 4c0:	01a10100 			; <UNDEFINED> instruction: 0x01a10100
 4c4:	70120000 	andsvc	r0, r2, r0
 4c8:	01006263 	tsteq	r0, r3, ror #4
 4cc:	0000f326 	andeq	pc, r0, r6, lsr #6
 4d0:	7c910200 	lfmvc	f0, 4, [r1], {0}
 4d4:	01006612 	tsteq	r0, r2, lsl r6
 4d8:	00002526 	andeq	r2, r0, r6, lsr #10
 4dc:	78910200 	ldmvc	r1, {r9}
 4e0:	67726112 			; <UNDEFINED> instruction: 0x67726112
 4e4:	8e260100 	sufhis	f0, f6, f0
 4e8:	02000000 	andeq	r0, r0, #0
 4ec:	73127491 	tstvc	r2, #-1862270976	; 0x91000000
 4f0:	26010070 			; <UNDEFINED> instruction: 0x26010070
 4f4:	0000008c 	andeq	r0, r0, ip, lsl #1
 4f8:	00709102 	rsbseq	r9, r0, r2, lsl #2
 4fc:	01d70113 	bicseq	r0, r7, r3, lsl r1
 500:	2f010000 	svccs	0x00010000
 504:	000084a4 	andeq	r8, r0, r4, lsr #9
 508:	000084c4 	andeq	r8, r0, r4, asr #9
 50c:	000001bc 			; <UNDEFINED> instruction: 0x000001bc
 510:	40011401 	andmi	r1, r1, r1, lsl #8
 514:	01000002 	tsteq	r0, r2
 518:	84c40134 	strbhi	r0, [r4], #308	; 0x134
 51c:	853c0000 	ldrhi	r0, [ip, #-0]!
 520:	01dc0000 	bicseq	r0, ip, r0
 524:	fe010000 	cdp2	0, 0, cr0, cr1, cr0, {0}
 528:	12000001 	andne	r0, r0, #1
 52c:	00626370 	rsbeq	r6, r2, r0, ror r3
 530:	00f33401 	rscseq	r3, r3, r1, lsl #8
 534:	91020000 	mrsls	r0, (UNDEF: 2)
 538:	ed01156c 	cfstr32	mvfx1, [r1, #-432]	; 0xfffffe50
 53c:	01000000 	mrseq	r0, (UNDEF: 0)
 540:	00012236 	andeq	r2, r1, r6, lsr r2
 544:	01f10100 	mvnseq	r0, r0, lsl #2
 548:	000e0000 	andeq	r0, lr, r0
 54c:	01007016 	tsteq	r0, r6, lsl r0
 550:	0000f339 	andeq	pc, r0, r9, lsr r3	; <UNPREDICTABLE>
 554:	74910200 	ldrvc	r0, [r1], #512	; 0x200
 558:	8d011400 	cfstrshi	mvf1, [r1, #-0]
 55c:	01000001 	tsteq	r0, r1
 560:	853c013e 	ldrhi	r0, [ip, #-318]!	; 0x13e
 564:	860c0000 	strhi	r0, [ip], -r0
 568:	02080000 	andeq	r0, r8, #0
 56c:	94010000 	strls	r0, [r1], #-0
 570:	12000002 	andne	r0, r0, #2
 574:	3e010066 	cdpcc	0, 0, cr0, cr1, cr6, {3}
 578:	00000025 	andeq	r0, r0, r5, lsr #32
 57c:	17649102 	strbne	r9, [r4, -r2, lsl #2]!
 580:	00000166 	andeq	r0, r0, r6, ror #2
 584:	008c3e01 	addeq	r3, ip, r1, lsl #28
 588:	91020000 	mrsls	r0, (UNDEF: 2)
 58c:	01a71760 			; <UNDEFINED> instruction: 0x01a71760
 590:	3e010000 	cdpcc	0, 0, cr0, cr1, cr0, {0}
 594:	00000294 	muleq	r0, r4, r2
 598:	185c9102 	ldmdane	ip, {r1, r8, ip, pc}^
 59c:	000001bb 			; <UNDEFINED> instruction: 0x000001bb
 5a0:	008c4001 	addeq	r4, ip, r1
 5a4:	91020000 	mrsls	r0, (UNDEF: 2)
 5a8:	de011570 	cfrshl64le	mvdx1, mvdx0, r1
 5ac:	01000000 	mrseq	r0, (UNDEF: 0)
 5b0:	00012240 	andeq	r2, r1, r0, asr #4
 5b4:	02610100 	rsbeq	r0, r1, #0
 5b8:	000e0000 	andeq	r0, lr, r0
 5bc:	00014a18 	andeq	r4, r1, r8, lsl sl
 5c0:	22430100 	subcs	r0, r3, #0
 5c4:	02000001 	andeq	r0, r0, #1
 5c8:	0c186c91 	ldceq	12, cr6, [r8], {145}	; 0x91
 5cc:	01000002 	tsteq	r0, r2
 5d0:	00008c44 	andeq	r8, r0, r4, asr #24
 5d4:	68910200 	ldmvs	r1, {r9}
 5d8:	0085a819 	addeq	sl, r5, r9, lsl r8
 5dc:	0085e000 	addeq	lr, r5, r0
 5e0:	00701600 	rsbseq	r1, r0, r0, lsl #12
 5e4:	00f34b01 	rscseq	r4, r3, r1, lsl #22
 5e8:	91020000 	mrsls	r0, (UNDEF: 2)
 5ec:	1a000074 	bne	7c4 <_start-0x783c>
 5f0:	007a0704 	rsbseq	r0, sl, r4, lsl #14
 5f4:	011b0000 	tsteq	fp, r0
 5f8:	000001e2 	andeq	r0, r0, r2, ror #3
 5fc:	860c5501 	strhi	r5, [ip], -r1, lsl #10
 600:	86240000 	strthi	r0, [r4], -r0
 604:	7d020000 	stcvc	0, cr0, [r2, #-0]
 608:	01130100 	tsteq	r3, r0, lsl #2
 60c:	00000252 	andeq	r0, r0, r2, asr r2
 610:	86245901 	strthi	r5, [r4], -r1, lsl #18
 614:	86740000 	ldrbthi	r0, [r4], -r0
 618:	02340000 	eorseq	r0, r4, #0
 61c:	1c010000 	stcne	0, cr0, [r1], {-0}
 620:	00015201 	andeq	r5, r1, r1, lsl #4
 624:	74610100 	strbtvc	r0, [r1], #-256	; 0x100
 628:	38000086 	stmdacc	r0, {r1, r2, r7}
 62c:	02000087 	andeq	r0, r0, #135	; 0x87
 630:	0c01007d 	stceq	0, cr0, [r1], {125}	; 0x7d
 634:	00021301 	andeq	r1, r2, r1, lsl #6
 638:	38900100 	ldmcc	r0, {r8}
 63c:	ec000087 	stc	0, cr0, [r0], {135}	; 0x87
 640:	54000087 	strpl	r0, [r0], #-135	; 0x87
 644:	01000002 	tsteq	r0, r2
 648:	0000031b 	andeq	r0, r0, fp, lsl r3
 64c:	01007016 	tsteq	r0, r6, lsl r0
 650:	0000f392 	muleq	r0, r2, r3
 654:	74910200 	ldrvc	r0, [r1], #512	; 0x200
 658:	00014a18 	andeq	r4, r1, r8, lsl sl
 65c:	22970100 	addscs	r0, r7, #0
 660:	02000001 	andeq	r0, r0, #1
 664:	010d7091 	swpeq	r7, r1, [sp]
 668:	000000de 	ldrdeq	r0, [r0], -lr
 66c:	01224001 	teqeq	r2, r1
 670:	0e010000 	cdpeq	0, 0, cr0, cr1, cr0, {0}
 674:	e81d0000 	ldmda	sp, {}	; <UNPREDICTABLE>
 678:	01000001 	tsteq	r0, r1
 67c:	0000f304 	andeq	pc, r0, r4, lsl #6
 680:	03050100 	movweq	r0, #20736	; 0x5100
 684:	00008c2c 	andeq	r8, r0, ip, lsr #24
 688:	0001f81d 	andeq	pc, r1, sp, lsl r8	; <UNPREDICTABLE>
 68c:	f3050100 	vrhadd.u8	d0, d5, d0
 690:	01000000 	mrseq	r0, (UNDEF: 0)
 694:	8c240305 	stchi	3, cr0, [r4], #-20	; 0xffffffec
 698:	2b1d0000 	blcs	7406a0 <__bss_end+0x737a70>
 69c:	01000002 	tsteq	r0, r2
 6a0:	0000f306 	andeq	pc, r0, r6, lsl #6
 6a4:	03050100 	movweq	r0, #20736	; 0x5100
 6a8:	00008c28 	andeq	r8, r0, r8, lsr #24
 6ac:	0002dc00 	andeq	sp, r2, r0, lsl #24
 6b0:	91000200 	mrsls	r0, R8_usr
 6b4:	04000003 	streq	r0, [r0], #-3
 6b8:	00009501 	andeq	r9, r0, r1, lsl #10
 6bc:	02c70100 	sbceq	r0, r7, #0
 6c0:	00190000 	andseq	r0, r9, r0
 6c4:	87ec0000 	strbhi	r0, [ip, r0]!
 6c8:	8c180000 	ldchi	0, cr0, [r8], {-0}
 6cc:	02260000 	eoreq	r0, r6, #0
 6d0:	01020000 	mrseq	r0, (UNDEF: 2)
 6d4:	00004506 	andeq	r4, r0, r6, lsl #10
 6d8:	05020200 	streq	r0, [r2, #-512]	; 0x200
 6dc:	000000a1 	andeq	r0, r0, r1, lsr #1
 6e0:	8c050402 	cfstrshi	mvf0, [r5], {2}
 6e4:	02000000 	andeq	r0, r0, #0
 6e8:	00870508 	addeq	r0, r7, r8, lsl #10
 6ec:	eb030000 	bl	c06f4 <__bss_end+0xb7ac4>
 6f0:	02000002 	andeq	r0, r0, #2
 6f4:	00004c2e 	andeq	r4, r0, lr, lsr #24
 6f8:	08010200 	stmdaeq	r1, {r9}
 6fc:	00000043 	andeq	r0, r0, r3, asr #32
 700:	51070202 	tstpl	r7, r2, lsl #4
 704:	03000000 	movweq	r0, #0
 708:	0000034e 	andeq	r0, r0, lr, asr #6
 70c:	00653402 	rsbeq	r3, r5, r2, lsl #8
 710:	04020000 	streq	r0, [r2], #-0
 714:	00007507 	andeq	r7, r0, r7, lsl #10
 718:	07080200 	streq	r0, [r8, -r0, lsl #4]
 71c:	00000070 	andeq	r0, r0, r0, ror r0
 720:	69050404 	stmdbvs	r5, {r2, sl}
 724:	0200746e 	andeq	r7, r0, #1845493760	; 0x6e000000
 728:	007a0704 	rsbseq	r0, sl, r4, lsl #14
 72c:	01050000 	mrseq	r0, (UNDEF: 5)
 730:	0000035d 	andeq	r0, r0, sp, asr r3
 734:	87ec1601 	strbhi	r1, [ip, r1, lsl #12]!
 738:	88300000 	ldmdahi	r0!, {}	; <UNPREDICTABLE>
 73c:	02800000 	addeq	r0, r0, #0
 740:	a8010000 	stmdage	r1, {}	; <UNPREDICTABLE>
 744:	06000000 	streq	r0, [r0], -r0
 748:	000002ce 	andeq	r0, r0, lr, asr #5
 74c:	007a1801 	rsbseq	r1, sl, r1, lsl #16
 750:	54010000 	strpl	r0, [r1], #-0
 754:	9b010500 	blls	41b5c <__bss_end+0x38f2c>
 758:	01000002 	tsteq	r0, r2
 75c:	00883029 	addeq	r3, r8, r9, lsr #32
 760:	00885800 	addeq	r5, r8, r0, lsl #16
 764:	0002a000 	andeq	sl, r2, r0
 768:	00cf0100 	sbceq	r0, pc, r0, lsl #2
 76c:	25060000 	strcs	r0, [r6, #-0]
 770:	01000003 	tsteq	r0, r3
 774:	00007a2b 	andeq	r7, r0, fp, lsr #20
 778:	00540100 	subseq	r0, r4, r0, lsl #2
 77c:	02fb0107 	rscseq	r0, fp, #-1073741823	; 0xc0000001
 780:	38010000 	stmdacc	r1, {}	; <UNPREDICTABLE>
 784:	00005a01 	andeq	r5, r0, r1, lsl #20
 788:	00885800 	addeq	r5, r8, r0, lsl #16
 78c:	00888400 	addeq	r8, r8, r0, lsl #8
 790:	0002c000 	andeq	ip, r2, r0
 794:	010a0100 	mrseq	r0, (UNDEF: 26)
 798:	b7080000 	strlt	r0, [r8, -r0]
 79c:	01000002 	tsteq	r0, r2
 7a0:	00007338 	andeq	r7, r0, r8, lsr r3
 7a4:	7c910200 	lfmvc	f0, 4, [r1], {0}
 7a8:	00028a08 	andeq	r8, r2, r8, lsl #20
 7ac:	73380100 	teqvc	r8, #0
 7b0:	02000000 	andeq	r0, r0, #0
 7b4:	09007891 	stmdbeq	r0, {r0, r4, r7, fp, ip, sp, lr}
 7b8:	00026e01 	andeq	r6, r2, r1, lsl #28
 7bc:	013d0100 	teqeq	sp, r0, lsl #2
 7c0:	0000007a 	andeq	r0, r0, sl, ror r0
 7c4:	00008884 	andeq	r8, r0, r4, lsl #17
 7c8:	000089cc 	andeq	r8, r0, ip, asr #19
 7cc:	000002e0 	andeq	r0, r0, r0, ror #5
 7d0:	0001a501 	andeq	sl, r1, r1, lsl #10
 7d4:	02de0600 	sbcseq	r0, lr, #0
 7d8:	3e010000 	cdpcc	0, 0, cr0, cr1, cr0, {0}
 7dc:	0000005a 	andeq	r0, r0, sl, asr r0
 7e0:	06649102 	strbteq	r9, [r4], -r2, lsl #2
 7e4:	00000315 	andeq	r0, r0, r5, lsl r3
 7e8:	005a4501 	subseq	r4, sl, r1, lsl #10
 7ec:	91020000 	mrsls	r0, (UNDEF: 2)
 7f0:	00690a60 	rsbeq	r0, r9, r0, ror #20
 7f4:	00734701 	rsbseq	r4, r3, r1, lsl #14
 7f8:	91020000 	mrsls	r0, (UNDEF: 2)
 7fc:	00700a74 	rsbseq	r0, r0, r4, ror sl
 800:	01a54801 			; <UNDEFINED> instruction: 0x01a54801
 804:	91020000 	mrsls	r0, (UNDEF: 2)
 808:	88b00b70 	ldmhi	r0!, {r4, r5, r6, r8, r9, fp}
 80c:	89940000 	ldmibhi	r4, {}	; <UNPREDICTABLE>
 810:	6a0a0000 	bvs	280818 <__bss_end+0x277be8>
 814:	734f0100 	movtvc	r0, #61696	; 0xf100
 818:	02000000 	andeq	r0, r0, #0
 81c:	710a6c91 			; <UNDEFINED> instruction: 0x710a6c91
 820:	a5500100 	ldrbge	r0, [r0, #-256]	; 0x100
 824:	02000001 	andeq	r0, r0, #1
 828:	6e066891 	mcrvs	8, 0, r6, cr6, cr1, {4}
 82c:	01000003 	tsteq	r0, r3
 830:	00005a6d 	andeq	r5, r0, sp, ror #20
 834:	58910200 	ldmpl	r1, {r9}
 838:	0088cc0b 	addeq	ip, r8, fp, lsl #24
 83c:	00894c00 	addeq	r4, r9, r0, lsl #24
 840:	03690600 	cmneq	r9, #0
 844:	56010000 	strpl	r0, [r1], -r0
 848:	0000005a 	andeq	r0, r0, sl, asr r0
 84c:	005c9102 	subseq	r9, ip, r2, lsl #2
 850:	040c0000 	streq	r0, [ip], #-0
 854:	0000005a 	andeq	r0, r0, sl, asr r0
 858:	03380105 	teqeq	r8, #1073741825	; 0x40000001
 85c:	76010000 	strvc	r0, [r1], -r0
 860:	000089cc 	andeq	r8, r0, ip, asr #19
 864:	00008a4c 	andeq	r8, r0, ip, asr #20
 868:	0000030c 	andeq	r0, r0, ip, lsl #6
 86c:	0001dd01 	andeq	sp, r1, r1, lsl #26
 870:	00710a00 	rsbseq	r0, r1, r0, lsl #20
 874:	01dd7701 	bicseq	r7, sp, r1, lsl #14
 878:	91020000 	mrsls	r0, (UNDEF: 2)
 87c:	00690a7c 	rsbeq	r0, r9, ip, ror sl
 880:	00737801 	rsbseq	r7, r3, r1, lsl #16
 884:	91020000 	mrsls	r0, (UNDEF: 2)
 888:	040c0078 	streq	r0, [ip], #-120	; 0x78
 88c:	00000041 	andeq	r0, r0, r1, asr #32
 890:	032d0107 	teqeq	sp, #-1073741823	; 0xc0000001
 894:	86010000 	strhi	r0, [r1], -r0
 898:	00025001 	andeq	r5, r2, r1
 89c:	008a4c00 	addeq	r4, sl, r0, lsl #24
 8a0:	008b7400 	addeq	r7, fp, r0, lsl #8
 8a4:	00032c00 	andeq	r2, r3, r0, lsl #24
 8a8:	02500100 	subseq	r0, r0, #0
 8ac:	f3080000 	vhadd.u8	d0, d8, d0
 8b0:	01000002 	tsteq	r0, r2
 8b4:	00007a86 	andeq	r7, r0, r6, lsl #21
 8b8:	64910200 	ldrvs	r0, [r1], #512	; 0x200
 8bc:	0100710a 	tsteq	r0, sl, lsl #2
 8c0:	0001dd88 	andeq	sp, r1, r8, lsl #27
 8c4:	7c910200 	lfmvc	f0, 4, [r1], {0}
 8c8:	01006a0a 	tsteq	r0, sl, lsl #20
 8cc:	00007389 	andeq	r7, r0, r9, lsl #7
 8d0:	78910200 	ldmvc	r1, {r9}
 8d4:	0002d606 	andeq	sp, r2, r6, lsl #12
 8d8:	dd8a0100 	stfles	f0, [sl]
 8dc:	02000001 	andeq	r0, r0, #1
 8e0:	ab067491 	blge	19db2c <__bss_end+0x194efc>
 8e4:	01000002 	tsteq	r0, r2
 8e8:	0000738b 	andeq	r7, r0, fp, lsl #7
 8ec:	70910200 	addsvc	r0, r1, r0, lsl #4
 8f0:	0100690a 	tsteq	r0, sl, lsl #18
 8f4:	0000738c 	andeq	r7, r0, ip, lsl #7
 8f8:	6c910200 	lfmvs	f0, 4, [r1], {0}
 8fc:	0e040d00 	cdpeq	13, 0, cr0, cr4, cr0, {0}
 900:	00030b01 	andeq	r0, r3, r1, lsl #22
 904:	01a70100 			; <UNDEFINED> instruction: 0x01a70100
 908:	00008b74 	andeq	r8, r0, r4, ror fp
 90c:	00008be0 	andeq	r8, r0, r0, ror #23
 910:	0000034c 	andeq	r0, r0, ip, asr #6
 914:	0002bb01 	andeq	fp, r2, r1, lsl #22
 918:	74700f00 	ldrbtvc	r0, [r0], #-3840	; 0xf00
 91c:	a7010072 	smlsdxge	r1, r2, r0, r0
 920:	00000250 	andeq	r0, r0, r0, asr r2
 924:	086c9102 	stmdaeq	ip!, {r1, r8, ip, pc}^
 928:	0000031e 	andeq	r0, r0, lr, lsl r3
 92c:	007aa701 	rsbseq	sl, sl, r1, lsl #14
 930:	91020000 	mrsls	r0, (UNDEF: 2)
 934:	03570668 	cmpeq	r7, #109051904	; 0x6800000
 938:	a9010000 	stmdbge	r1, {}	; <UNPREDICTABLE>
 93c:	0000005a 	andeq	r0, r0, sl, asr r0
 940:	0a7c9102 	beq	1f24d50 <__bss_end+0x1f1c120>
 944:	0078616d 	rsbseq	r6, r8, sp, ror #2
 948:	005aaa01 	subseq	sl, sl, r1, lsl #20
 94c:	91020000 	mrsls	r0, (UNDEF: 2)
 950:	8ba00b78 	blhi	fe803738 <__bss_end+0xfe7fab08>
 954:	8bbc0000 	blhi	fef0095c <__bss_end+0xfeef7d2c>
 958:	710a0000 	mrsvc	r0, (UNDEF: 10)
 95c:	ddad0100 	stfles	f0, [sp]
 960:	02000001 	andeq	r0, r0, #1
 964:	00007491 	muleq	r0, r1, r4
 968:	03730110 	cmneq	r3, #4
 96c:	df010000 	svcle	0x00010000
 970:	00008be0 	andeq	r8, r0, r0, ror #23
 974:	00008c18 	andeq	r8, r0, r8, lsl ip
 978:	0000036c 	andeq	r0, r0, ip, ror #6
 97c:	00e70601 	rsceq	r0, r7, r1, lsl #12
 980:	e1010000 	mrs	r0, (UNDEF: 1)
 984:	00000250 	andeq	r0, r0, r0, asr r2
 988:	00749102 	rsbseq	r9, r4, r2, lsl #2
	...

Disassembly of section .debug_abbrev:

00000000 <.debug_abbrev>:
   0:	10001101 	andne	r1, r0, r1, lsl #2
   4:	12011106 	andne	r1, r1, #-2147483647	; 0x80000001
   8:	1b080301 	blne	200c14 <__bss_end+0x1f7fe4>
   c:	13082508 	movwne	r2, #34056	; 0x8508
  10:	00000005 	andeq	r0, r0, r5
  14:	25011101 	strcs	r1, [r1, #-257]	; 0x101
  18:	030b130e 	movweq	r1, #45838	; 0xb30e
  1c:	110e1b0e 	tstne	lr, lr, lsl #22
  20:	10011201 	andne	r1, r1, r1, lsl #4
  24:	02000006 	andeq	r0, r0, #6
  28:	0b0b0024 	bleq	2c00c0 <__bss_end+0x2b7490>
  2c:	0e030b3e 	vmoveq.16	d3[0], r0
  30:	24030000 	strcs	r0, [r3], #-0
  34:	3e0b0b00 	vmlacc.f64	d0, d11, d0
  38:	0008030b 	andeq	r0, r8, fp, lsl #6
  3c:	012e0400 	teqeq	lr, r0, lsl #8
  40:	0e030c3f 	mcreq	12, 0, r0, cr3, cr15, {1}
  44:	0b3b0b3a 	bleq	ec2d34 <__bss_end+0xeba104>
  48:	01120111 	tsteq	r2, r1, lsl r1
  4c:	42970640 	addsmi	r0, r7, #67108864	; 0x4000000
  50:	0013010c 	andseq	r0, r3, ip, lsl #2
  54:	00340500 	eorseq	r0, r4, r0, lsl #10
  58:	0b3a0e03 	bleq	e8386c <__bss_end+0xe7ac3c>
  5c:	13490b3b 	movtne	r0, #39739	; 0x9b3b
  60:	00000a02 	andeq	r0, r0, r2, lsl #20
  64:	3f012e06 	svccc	0x00012e06
  68:	3a0e030c 	bcc	380ca0 <__bss_end+0x378070>
  6c:	270b3b0b 	strcs	r3, [fp, -fp, lsl #22]
  70:	1113490c 	tstne	r3, ip, lsl #18
  74:	40011201 	andmi	r1, r1, r1, lsl #4
  78:	0c429606 	mcrreq	6, 0, r9, r2, cr6
  7c:	34070000 	strcc	r0, [r7], #-0
  80:	3a080300 	bcc	200c88 <__bss_end+0x1f8058>
  84:	490b3b0b 	stmdbmi	fp, {r0, r1, r3, r8, r9, fp, ip, sp}
  88:	000a0213 	andeq	r0, sl, r3, lsl r2
  8c:	11010000 	mrsne	r0, (UNDEF: 1)
  90:	130e2501 	movwne	r2, #58625	; 0xe501
  94:	1b0e030b 	blne	380cc8 <__bss_end+0x378098>
  98:	1201110e 	andne	r1, r1, #-2147483645	; 0x80000003
  9c:	00061001 	andeq	r1, r6, r1
  a0:	01130200 	tsteq	r3, r0, lsl #4
  a4:	0b0b0803 	bleq	2c20b8 <__bss_end+0x2b9488>
  a8:	0b3b0b3a 	bleq	ec2d98 <__bss_end+0xeba168>
  ac:	00001301 	andeq	r1, r0, r1, lsl #6
  b0:	03000d03 	movweq	r0, #3331	; 0xd03
  b4:	3b0b3a0e 	blcc	2ce8f4 <__bss_end+0x2c5cc4>
  b8:	3813490b 	ldmdacc	r3, {r0, r1, r3, r8, fp, lr}
  bc:	0400000a 	streq	r0, [r0], #-10
  c0:	0b0b000f 	bleq	2c0104 <__bss_end+0x2b74d4>
  c4:	00001349 	andeq	r1, r0, r9, asr #6
  c8:	0b002405 	bleq	90e4 <__bss_end+0x4b4>
  cc:	030b3e0b 	movweq	r3, #48651	; 0xbe0b
  d0:	0600000e 	streq	r0, [r0], -lr
  d4:	0c3f012e 	ldfeqs	f0, [pc], #-184	; 24 <_start-0x7fdc>
  d8:	0b3a0e03 	bleq	e838ec <__bss_end+0xe7acbc>
  dc:	0c270b3b 	stceq	11, cr0, [r7], #-236	; 0xffffff14
  e0:	01111349 	tsteq	r1, r9, asr #6
  e4:	06400112 			; <UNDEFINED> instruction: 0x06400112
  e8:	010c4297 			; <UNDEFINED> instruction: 0x010c4297
  ec:	07000013 	smladeq	r0, r3, r0, r0
  f0:	0e030005 	cdpeq	0, 0, cr0, cr3, cr5, {0}
  f4:	0b3b0b3a 	bleq	ec2de4 <__bss_end+0xeba1b4>
  f8:	0a021349 	beq	84e24 <__bss_end+0x7c1f4>
  fc:	34080000 	strcc	r0, [r8], #-0
 100:	3a080300 	bcc	200d08 <__bss_end+0x1f80d8>
 104:	490b3b0b 	stmdbmi	fp, {r0, r1, r3, r8, r9, fp, ip, sp}
 108:	000a0213 	andeq	r0, sl, r3, lsl r2
 10c:	00340900 	eorseq	r0, r4, r0, lsl #18
 110:	0b3a0e03 	bleq	e83924 <__bss_end+0xe7acf4>
 114:	13490b3b 	movtne	r0, #39739	; 0x9b3b
 118:	00000a02 	andeq	r0, r0, r2, lsl #20
 11c:	0b000f0a 	bleq	3d4c <_start-0x42b4>
 120:	0b00000b 	bleq	154 <_start-0x7eac>
 124:	0c3f012e 	ldfeqs	f0, [pc], #-184	; 74 <_start-0x7f8c>
 128:	0b3a0e03 	bleq	e8393c <__bss_end+0xe7ad0c>
 12c:	0c270b3b 	stceq	11, cr0, [r7], #-236	; 0xffffff14
 130:	01120111 	tsteq	r2, r1, lsl r1
 134:	42970640 	addsmi	r0, r7, #67108864	; 0x4000000
 138:	0013010c 	andseq	r0, r3, ip, lsl #2
 13c:	00050c00 	andeq	r0, r5, r0, lsl #24
 140:	0b3a0803 	bleq	e82154 <__bss_end+0xe79524>
 144:	13490b3b 	movtne	r0, #39739	; 0x9b3b
 148:	00000a02 	andeq	r0, r0, r2, lsl #20
 14c:	0300340d 	movweq	r3, #1037	; 0x40d
 150:	3b0b3a0e 	blcc	2ce990 <__bss_end+0x2c5d60>
 154:	3f13490b 	svccc	0x0013490b
 158:	000a020c 	andeq	r0, sl, ip, lsl #4
 15c:	11010000 	mrsne	r0, (UNDEF: 1)
 160:	130e2501 	movwne	r2, #58625	; 0xe501
 164:	1b0e030b 	blne	380d98 <__bss_end+0x378168>
 168:	1201110e 	andne	r1, r1, #-2147483645	; 0x80000003
 16c:	00061001 	andeq	r1, r6, r1
 170:	00240200 	eoreq	r0, r4, r0, lsl #4
 174:	0b3e0b0b 	bleq	f82da8 <__bss_end+0xf7a178>
 178:	00000e03 	andeq	r0, r0, r3, lsl #28
 17c:	3f012e03 	svccc	0x00012e03
 180:	3a0e030c 	bcc	380db8 <__bss_end+0x378188>
 184:	110b3b0b 	tstne	fp, fp, lsl #22
 188:	40011201 	andmi	r1, r1, r1, lsl #4
 18c:	0c429606 	mcrreq	6, 0, r9, r2, cr6
 190:	00001301 	andeq	r1, r0, r1, lsl #6
 194:	03003404 	movweq	r3, #1028	; 0x404
 198:	3b0b3a08 	blcc	2ce9c0 <__bss_end+0x2c5d90>
 19c:	0213490b 	andseq	r4, r3, #180224	; 0x2c000
 1a0:	0500000a 	streq	r0, [r0, #-10]
 1a4:	0c3f002e 	ldceq	0, cr0, [pc], #-184	; f4 <_start-0x7f0c>
 1a8:	0b3a0e03 	bleq	e839bc <__bss_end+0xe7ad8c>
 1ac:	01110b3b 	tsteq	r1, fp, lsr fp
 1b0:	06400112 			; <UNDEFINED> instruction: 0x06400112
 1b4:	000c4296 	muleq	ip, r6, r2
 1b8:	012e0600 	teqeq	lr, r0, lsl #12
 1bc:	0e030c3f 	mcreq	12, 0, r0, cr3, cr15, {1}
 1c0:	0b3b0b3a 	bleq	ec2eb0 <__bss_end+0xeba280>
 1c4:	01120111 	tsteq	r2, r1, lsl r1
 1c8:	42960640 	addsmi	r0, r6, #67108864	; 0x4000000
 1cc:	0000000c 	andeq	r0, r0, ip
 1d0:	25011101 	strcs	r1, [r1, #-257]	; 0x101
 1d4:	030b130e 	movweq	r1, #45838	; 0xb30e
 1d8:	110e1b0e 	tstne	lr, lr, lsl #22
 1dc:	10011201 	andne	r1, r1, r1, lsl #4
 1e0:	02000006 	andeq	r0, r0, #6
 1e4:	0e030016 	mcreq	0, 0, r0, cr3, cr6, {0}
 1e8:	0b3b0b3a 	bleq	ec2ed8 <__bss_end+0xeba2a8>
 1ec:	00001349 	andeq	r1, r0, r9, asr #6
 1f0:	0b000f03 	bleq	3e04 <_start-0x41fc>
 1f4:	0013490b 	andseq	r4, r3, fp, lsl #18
 1f8:	00150400 	andseq	r0, r5, r0, lsl #8
 1fc:	00000c27 	andeq	r0, r0, r7, lsr #24
 200:	03010405 	movweq	r0, #5125	; 0x1405
 204:	3a0b0b0e 	bcc	2c2e44 <__bss_end+0x2ba214>
 208:	010b3b0b 	tsteq	fp, fp, lsl #22
 20c:	06000013 			; <UNDEFINED> instruction: 0x06000013
 210:	08030028 	stmdaeq	r3, {r3, r5}
 214:	00000d1c 	andeq	r0, r0, ip, lsl sp
 218:	03002807 	movweq	r2, #2055	; 0x807
 21c:	000d1c0e 	andeq	r1, sp, lr, lsl #24
 220:	01130800 	tsteq	r3, r0, lsl #16
 224:	0b0b0e03 	bleq	2c3a38 <__bss_end+0x2bae08>
 228:	0b3b0b3a 	bleq	ec2f18 <__bss_end+0xeba2e8>
 22c:	00001301 	andeq	r1, r0, r1, lsl #6
 230:	03000d09 	movweq	r0, #3337	; 0xd09
 234:	3b0b3a08 	blcc	2cea5c <__bss_end+0x2c5e2c>
 238:	3813490b 	ldmdacc	r3, {r0, r1, r3, r8, fp, lr}
 23c:	0a00000a 	beq	26c <_start-0x7d94>
 240:	0e03000d 	cdpeq	0, 0, cr0, cr3, cr13, {0}
 244:	0b3b0b3a 	bleq	ec2f34 <__bss_end+0xeba304>
 248:	0a381349 	beq	e04f74 <__bss_end+0xdfc344>
 24c:	0f0b0000 	svceq	0x000b0000
 250:	000b0b00 	andeq	r0, fp, r0, lsl #22
 254:	012e0c00 	teqeq	lr, r0, lsl #24
 258:	0e030c3f 	mcreq	12, 0, r0, cr3, cr15, {1}
 25c:	0b3b0b3a 	bleq	ec2f4c <__bss_end+0xeba31c>
 260:	01120111 	tsteq	r2, r1, lsl r1
 264:	42960640 	addsmi	r0, r6, #67108864	; 0x4000000
 268:	0013010c 	andseq	r0, r3, ip, lsl #2
 26c:	012e0d00 	teqeq	lr, r0, lsl #26
 270:	0e030c3f 	mcreq	12, 0, r0, cr3, cr15, {1}
 274:	0b3b0b3a 	bleq	ec2f64 <__bss_end+0xeba334>
 278:	0c3c1349 	ldceq	3, cr1, [ip], #-292	; 0xfffffedc
 27c:	180e0000 	stmdane	lr, {}	; <UNPREDICTABLE>
 280:	0f000000 	svceq	0x00000000
 284:	0b0b0024 	bleq	2c031c <__bss_end+0x2b76ec>
 288:	08030b3e 	stmdaeq	r3, {r1, r2, r3, r4, r5, r8, r9, fp}
 28c:	2e100000 	cdpcs	0, 1, cr0, cr0, cr0, {0}
 290:	030c3f01 	movweq	r3, #52993	; 0xcf01
 294:	3b0b3a0e 	blcc	2cead4 <__bss_end+0x2c5ea4>
 298:	1201110b 	andne	r1, r1, #-1073741822	; 0xc0000002
 29c:	960a4001 	strls	r4, [sl], -r1
 2a0:	13010c42 	movwne	r0, #7234	; 0x1c42
 2a4:	2e110000 	cdpcs	0, 1, cr0, cr1, cr0, {0}
 2a8:	030c3f01 	movweq	r3, #52993	; 0xcf01
 2ac:	3b0b3a0e 	blcc	2ceaec <__bss_end+0x2c5ebc>
 2b0:	110c270b 	tstne	ip, fp, lsl #14
 2b4:	40011201 	andmi	r1, r1, r1, lsl #4
 2b8:	0c429706 	mcrreq	7, 0, r9, r2, cr6
 2bc:	00001301 	andeq	r1, r0, r1, lsl #6
 2c0:	03000512 	movweq	r0, #1298	; 0x512
 2c4:	3b0b3a08 	blcc	2ceaec <__bss_end+0x2c5ebc>
 2c8:	0213490b 	andseq	r4, r3, #180224	; 0x2c000
 2cc:	1300000a 	movwne	r0, #10
 2d0:	0c3f002e 	ldceq	0, cr0, [pc], #-184	; 220 <_start-0x7de0>
 2d4:	0b3a0e03 	bleq	e83ae8 <__bss_end+0xe7aeb8>
 2d8:	01110b3b 	tsteq	r1, fp, lsr fp
 2dc:	06400112 			; <UNDEFINED> instruction: 0x06400112
 2e0:	000c4296 	muleq	ip, r6, r2
 2e4:	012e1400 	teqeq	lr, r0, lsl #8
 2e8:	0e030c3f 	mcreq	12, 0, r0, cr3, cr15, {1}
 2ec:	0b3b0b3a 	bleq	ec2fdc <__bss_end+0xeba3ac>
 2f0:	01110c27 	tsteq	r1, r7, lsr #24
 2f4:	06400112 			; <UNDEFINED> instruction: 0x06400112
 2f8:	010c4296 			; <UNDEFINED> instruction: 0x010c4296
 2fc:	15000013 	strne	r0, [r0, #-19]
 300:	0c3f012e 	ldfeqs	f0, [pc], #-184	; 250 <_start-0x7db0>
 304:	0b3a0e03 	bleq	e83b18 <__bss_end+0xe7aee8>
 308:	13490b3b 	movtne	r0, #39739	; 0x9b3b
 30c:	13010c3c 	movwne	r0, #7228	; 0x1c3c
 310:	34160000 	ldrcc	r0, [r6], #-0
 314:	3a080300 	bcc	200f1c <__bss_end+0x1f82ec>
 318:	490b3b0b 	stmdbmi	fp, {r0, r1, r3, r8, r9, fp, ip, sp}
 31c:	000a0213 	andeq	r0, sl, r3, lsl r2
 320:	00051700 	andeq	r1, r5, r0, lsl #14
 324:	0b3a0e03 	bleq	e83b38 <__bss_end+0xe7af08>
 328:	13490b3b 	movtne	r0, #39739	; 0x9b3b
 32c:	00000a02 	andeq	r0, r0, r2, lsl #20
 330:	03003418 	movweq	r3, #1048	; 0x418
 334:	3b0b3a0e 	blcc	2ceb74 <__bss_end+0x2c5f44>
 338:	0213490b 	andseq	r4, r3, #180224	; 0x2c000
 33c:	1900000a 	stmdbne	r0, {r1, r3}
 340:	0111010b 	tsteq	r1, fp, lsl #2
 344:	00000112 	andeq	r0, r0, r2, lsl r1
 348:	0b00241a 	bleq	93b8 <__bss_end+0x788>
 34c:	030b3e0b 	movweq	r3, #48651	; 0xbe0b
 350:	1b00000e 	blne	390 <_start-0x7c70>
 354:	0c3f002e 	ldceq	0, cr0, [pc], #-184	; 2a4 <_start-0x7d5c>
 358:	0b3a0e03 	bleq	e83b6c <__bss_end+0xe7af3c>
 35c:	01110b3b 	tsteq	r1, fp, lsr fp
 360:	0a400112 	beq	10007b0 <__bss_end+0xff7b80>
 364:	000c4297 	muleq	ip, r7, r2
 368:	002e1c00 	eoreq	r1, lr, r0, lsl #24
 36c:	0e030c3f 	mcreq	12, 0, r0, cr3, cr15, {1}
 370:	0b3b0b3a 	bleq	ec3060 <__bss_end+0xeba430>
 374:	01120111 	tsteq	r2, r1, lsl r1
 378:	42960a40 	addsmi	r0, r6, #262144	; 0x40000
 37c:	1d00000c 	stcne	0, cr0, [r0, #-48]	; 0xffffffd0
 380:	0e030034 	mcreq	0, 0, r0, cr3, cr4, {1}
 384:	0b3b0b3a 	bleq	ec3074 <__bss_end+0xeba444>
 388:	0c3f1349 	ldceq	3, cr1, [pc], #-292	; 26c <_start-0x7d94>
 38c:	00000a02 	andeq	r0, r0, r2, lsl #20
 390:	01110100 	tsteq	r1, r0, lsl #2
 394:	0b130e25 	bleq	4c3c30 <__bss_end+0x4bb000>
 398:	0e1b0e03 	cdpeq	14, 1, cr0, cr11, cr3, {0}
 39c:	01120111 	tsteq	r2, r1, lsl r1
 3a0:	00000610 	andeq	r0, r0, r0, lsl r6
 3a4:	0b002402 	bleq	93b4 <__bss_end+0x784>
 3a8:	030b3e0b 	movweq	r3, #48651	; 0xbe0b
 3ac:	0300000e 	movweq	r0, #14
 3b0:	0e030016 	mcreq	0, 0, r0, cr3, cr6, {0}
 3b4:	0b3b0b3a 	bleq	ec30a4 <__bss_end+0xeba474>
 3b8:	00001349 	andeq	r1, r0, r9, asr #6
 3bc:	0b002404 	bleq	93d4 <__bss_end+0x7a4>
 3c0:	030b3e0b 	movweq	r3, #48651	; 0xbe0b
 3c4:	05000008 	streq	r0, [r0, #-8]
 3c8:	0c3f012e 	ldfeqs	f0, [pc], #-184	; 318 <_start-0x7ce8>
 3cc:	0b3a0e03 	bleq	e83be0 <__bss_end+0xe7afb0>
 3d0:	01110b3b 	tsteq	r1, fp, lsr fp
 3d4:	06400112 			; <UNDEFINED> instruction: 0x06400112
 3d8:	010c4297 			; <UNDEFINED> instruction: 0x010c4297
 3dc:	06000013 			; <UNDEFINED> instruction: 0x06000013
 3e0:	0e030034 	mcreq	0, 0, r0, cr3, cr4, {1}
 3e4:	0b3b0b3a 	bleq	ec30d4 <__bss_end+0xeba4a4>
 3e8:	0a021349 	beq	85114 <__bss_end+0x7c4e4>
 3ec:	2e070000 	cdpcs	0, 0, cr0, cr7, cr0, {0}
 3f0:	030c3f01 	movweq	r3, #52993	; 0xcf01
 3f4:	3b0b3a0e 	blcc	2cec34 <__bss_end+0x2c6004>
 3f8:	490c270b 	stmdbmi	ip, {r0, r1, r3, r8, r9, sl, sp}
 3fc:	12011113 	andne	r1, r1, #-1073741820	; 0xc0000004
 400:	97064001 	strls	r4, [r6, -r1]
 404:	13010c42 	movwne	r0, #7234	; 0x1c42
 408:	05080000 	streq	r0, [r8, #-0]
 40c:	3a0e0300 	bcc	381014 <__bss_end+0x3783e4>
 410:	490b3b0b 	stmdbmi	fp, {r0, r1, r3, r8, r9, fp, ip, sp}
 414:	000a0213 	andeq	r0, sl, r3, lsl r2
 418:	012e0900 	teqeq	lr, r0, lsl #18
 41c:	0e030c3f 	mcreq	12, 0, r0, cr3, cr15, {1}
 420:	0b3b0b3a 	bleq	ec3110 <__bss_end+0xeba4e0>
 424:	13490c27 	movtne	r0, #39975	; 0x9c27
 428:	01120111 	tsteq	r2, r1, lsl r1
 42c:	42960640 	addsmi	r0, r6, #67108864	; 0x4000000
 430:	0013010c 	andseq	r0, r3, ip, lsl #2
 434:	00340a00 	eorseq	r0, r4, r0, lsl #20
 438:	0b3a0803 	bleq	e8244c <__bss_end+0xe7981c>
 43c:	13490b3b 	movtne	r0, #39739	; 0x9b3b
 440:	00000a02 	andeq	r0, r0, r2, lsl #20
 444:	11010b0b 	tstne	r1, fp, lsl #22
 448:	00011201 	andeq	r1, r1, r1, lsl #4
 44c:	000f0c00 	andeq	r0, pc, r0, lsl #24
 450:	13490b0b 	movtne	r0, #39691	; 0x9b0b
 454:	0f0d0000 	svceq	0x000d0000
 458:	000b0b00 	andeq	r0, fp, r0, lsl #22
 45c:	012e0e00 	teqeq	lr, r0, lsl #28
 460:	0e030c3f 	mcreq	12, 0, r0, cr3, cr15, {1}
 464:	0b3b0b3a 	bleq	ec3154 <__bss_end+0xeba524>
 468:	01110c27 	tsteq	r1, r7, lsr #24
 46c:	06400112 			; <UNDEFINED> instruction: 0x06400112
 470:	010c4297 			; <UNDEFINED> instruction: 0x010c4297
 474:	0f000013 	svceq	0x00000013
 478:	08030005 	stmdaeq	r3, {r0, r2}
 47c:	0b3b0b3a 	bleq	ec316c <__bss_end+0xeba53c>
 480:	0a021349 	beq	851ac <__bss_end+0x7c57c>
 484:	2e100000 	cdpcs	0, 1, cr0, cr0, cr0, {0}
 488:	030c3f01 	movweq	r3, #52993	; 0xcf01
 48c:	3b0b3a0e 	blcc	2ceccc <__bss_end+0x2c609c>
 490:	1201110b 	andne	r1, r1, #-1073741822	; 0xc0000002
 494:	96064001 	strls	r4, [r6], -r1
 498:	00000c42 	andeq	r0, r0, r2, asr #24
	...

Disassembly of section .debug_aranges:

00000000 <.debug_aranges>:
   0:	0000001c 	andeq	r0, r0, ip, lsl r0
   4:	00000002 	andeq	r0, r0, r2
   8:	00040000 	andeq	r0, r4, r0
   c:	00000000 	andeq	r0, r0, r0
  10:	00008000 	andeq	r8, r0, r0
  14:	000000d0 	ldrdeq	r0, [r0], -r0	; <UNPREDICTABLE>
	...
  20:	0000001c 	andeq	r0, r0, ip, lsl r0
  24:	005a0002 	subseq	r0, sl, r2
  28:	00040000 	andeq	r0, r4, r0
  2c:	00000000 	andeq	r0, r0, r0
  30:	000080d0 	ldrdeq	r8, [r0], -r0
  34:	00000084 	andeq	r0, r0, r4, lsl #1
	...
  40:	0000001c 	andeq	r0, r0, ip, lsl r0
  44:	013d0002 	teqeq	sp, r2
  48:	00040000 	andeq	r0, r4, r0
  4c:	00000000 	andeq	r0, r0, r0
  50:	00008154 	andeq	r8, r0, r4, asr r1
  54:	00000138 	andeq	r0, r0, r8, lsr r1
	...
  60:	0000001c 	andeq	r0, r0, ip, lsl r0
  64:	029f0002 	addseq	r0, pc, #2
  68:	00040000 	andeq	r0, r4, r0
  6c:	00000000 	andeq	r0, r0, r0
  70:	0000828c 	andeq	r8, r0, ip, lsl #5
  74:	0000013c 	andeq	r0, r0, ip, lsr r1
	...
  80:	0000001c 	andeq	r0, r0, ip, lsl r0
  84:	035b0002 	cmpeq	fp, #2
  88:	00040000 	andeq	r0, r4, r0
  8c:	00000000 	andeq	r0, r0, r0
  90:	000083c8 	andeq	r8, r0, r8, asr #7
  94:	00000424 	andeq	r0, r0, r4, lsr #8
	...
  a0:	0000001c 	andeq	r0, r0, ip, lsl r0
  a4:	06ad0002 	strteq	r0, [sp], r2
  a8:	00040000 	andeq	r0, r4, r0
  ac:	00000000 	andeq	r0, r0, r0
  b0:	000087ec 	andeq	r8, r0, ip, ror #15
  b4:	0000042c 	andeq	r0, r0, ip, lsr #8
	...

Disassembly of section .debug_loc:

00000000 <.debug_loc>:
   0:	00000000 	andeq	r0, r0, r0
   4:	00000004 	andeq	r0, r0, r4
   8:	007d0002 	rsbseq	r0, sp, r2
   c:	00000004 	andeq	r0, r0, r4
  10:	0000001c 	andeq	r0, r0, ip, lsl r0
  14:	087d0002 	ldmdaeq	sp!, {r1}^
	...
  20:	0000001c 	andeq	r0, r0, ip, lsl r0
  24:	00000020 	andeq	r0, r0, r0, lsr #32
  28:	007d0002 	rsbseq	r0, sp, r2
  2c:	00000020 	andeq	r0, r0, r0, lsr #32
  30:	00000038 	andeq	r0, r0, r8, lsr r0
  34:	087d0002 	ldmdaeq	sp!, {r1}^
	...
  40:	00000038 	andeq	r0, r0, r8, lsr r0
  44:	0000003c 	andeq	r0, r0, ip, lsr r0
  48:	007d0002 	rsbseq	r0, sp, r2
  4c:	0000003c 	andeq	r0, r0, ip, lsr r0
  50:	00000040 	andeq	r0, r0, r0, asr #32
  54:	047d0002 	ldrbteq	r0, [sp], #-2
  58:	00000040 	andeq	r0, r0, r0, asr #32
  5c:	00000084 	andeq	r0, r0, r4, lsl #1
  60:	107d0002 	rsbsne	r0, sp, r2
	...
  70:	00000004 	andeq	r0, r0, r4
  74:	007d0002 	rsbseq	r0, sp, r2
  78:	00000004 	andeq	r0, r0, r4
  7c:	00000008 	andeq	r0, r0, r8
  80:	087d0002 	ldmdaeq	sp!, {r1}^
  84:	00000008 	andeq	r0, r0, r8
  88:	000000b4 	strheq	r0, [r0], -r4
  8c:	107d0002 	rsbsne	r0, sp, r2
	...
  98:	000000b4 	strheq	r0, [r0], -r4
  9c:	000000b8 	strheq	r0, [r0], -r8
  a0:	007d0002 	rsbseq	r0, sp, r2
  a4:	000000b8 	strheq	r0, [r0], -r8
  a8:	000000bc 	strheq	r0, [r0], -ip
  ac:	047d0002 	ldrbteq	r0, [sp], #-2
  b0:	000000bc 	strheq	r0, [r0], -ip
  b4:	000000fc 	strdeq	r0, [r0], -ip
  b8:	107d0002 	rsbsne	r0, sp, r2
	...
  c4:	000000fc 	strdeq	r0, [r0], -ip
  c8:	00000100 	andeq	r0, r0, r0, lsl #2
  cc:	007d0002 	rsbseq	r0, sp, r2
  d0:	00000100 	andeq	r0, r0, r0, lsl #2
  d4:	00000138 	andeq	r0, r0, r8, lsr r1
  d8:	087d0002 	ldmdaeq	sp!, {r1}^
	...
  e8:	00000004 	andeq	r0, r0, r4
  ec:	007d0002 	rsbseq	r0, sp, r2
  f0:	00000004 	andeq	r0, r0, r4
  f4:	00000008 	andeq	r0, r0, r8
  f8:	047d0002 	ldrbteq	r0, [sp], #-2
  fc:	00000008 	andeq	r0, r0, r8
 100:	0000004c 	andeq	r0, r0, ip, asr #32
 104:	107d0002 	rsbsne	r0, sp, r2
	...
 110:	0000004c 	andeq	r0, r0, ip, asr #32
 114:	00000050 	andeq	r0, r0, r0, asr r0
 118:	007d0002 	rsbseq	r0, sp, r2
 11c:	00000050 	andeq	r0, r0, r0, asr r0
 120:	00000064 	andeq	r0, r0, r4, rrx
 124:	087d0002 	ldmdaeq	sp!, {r1}^
	...
 130:	00000064 	andeq	r0, r0, r4, rrx
 134:	00000068 	andeq	r0, r0, r8, rrx
 138:	007d0002 	rsbseq	r0, sp, r2
 13c:	00000068 	andeq	r0, r0, r8, rrx
 140:	0000007c 	andeq	r0, r0, ip, ror r0
 144:	087d0002 	ldmdaeq	sp!, {r1}^
	...
 150:	0000007c 	andeq	r0, r0, ip, ror r0
 154:	00000080 	andeq	r0, r0, r0, lsl #1
 158:	007d0002 	rsbseq	r0, sp, r2
 15c:	00000080 	andeq	r0, r0, r0, lsl #1
 160:	00000084 	andeq	r0, r0, r4, lsl #1
 164:	047d0002 	ldrbteq	r0, [sp], #-2
 168:	00000084 	andeq	r0, r0, r4, lsl #1
 16c:	0000013c 	andeq	r0, r0, ip, lsr r1
 170:	107d0002 	rsbsne	r0, sp, r2
	...
 180:	00000004 	andeq	r0, r0, r4
 184:	007d0002 	rsbseq	r0, sp, r2
 188:	00000004 	andeq	r0, r0, r4
 18c:	0000007c 	andeq	r0, r0, ip, ror r0
 190:	087d0002 	ldmdaeq	sp!, {r1}^
	...
 19c:	00000084 	andeq	r0, r0, r4, lsl #1
 1a0:	00000088 	andeq	r0, r0, r8, lsl #1
 1a4:	007d0002 	rsbseq	r0, sp, r2
 1a8:	00000088 	andeq	r0, r0, r8, lsl #1
 1ac:	000000dc 	ldrdeq	r0, [r0], -ip
 1b0:	107d0002 	rsbsne	r0, sp, r2
	...
 1bc:	000000dc 	ldrdeq	r0, [r0], -ip
 1c0:	000000e0 	andeq	r0, r0, r0, ror #1
 1c4:	007d0002 	rsbseq	r0, sp, r2
 1c8:	000000e0 	andeq	r0, r0, r0, ror #1
 1cc:	000000fc 	strdeq	r0, [r0], -ip
 1d0:	087d0002 	ldmdaeq	sp!, {r1}^
	...
 1dc:	000000fc 	strdeq	r0, [r0], -ip
 1e0:	00000100 	andeq	r0, r0, r0, lsl #2
 1e4:	007d0002 	rsbseq	r0, sp, r2
 1e8:	00000100 	andeq	r0, r0, r0, lsl #2
 1ec:	00000104 	andeq	r0, r0, r4, lsl #2
 1f0:	047d0002 	ldrbteq	r0, [sp], #-2
 1f4:	00000104 	andeq	r0, r0, r4, lsl #2
 1f8:	00000174 	andeq	r0, r0, r4, ror r1
 1fc:	187d0002 	ldmdane	sp!, {r1}^
	...
 208:	00000174 	andeq	r0, r0, r4, ror r1
 20c:	00000178 	andeq	r0, r0, r8, ror r1
 210:	007d0002 	rsbseq	r0, sp, r2
 214:	00000178 	andeq	r0, r0, r8, ror r1
 218:	0000017c 	andeq	r0, r0, ip, ror r1
 21c:	047d0002 	ldrbteq	r0, [sp], #-2
 220:	0000017c 	andeq	r0, r0, ip, ror r1
 224:	00000244 	andeq	r0, r0, r4, asr #4
 228:	287d0002 	ldmdacs	sp!, {r1}^
	...
 234:	0000025c 	andeq	r0, r0, ip, asr r2
 238:	00000260 	andeq	r0, r0, r0, ror #4
 23c:	007d0002 	rsbseq	r0, sp, r2
 240:	00000260 	andeq	r0, r0, r0, ror #4
 244:	000002ac 	andeq	r0, r0, ip, lsr #5
 248:	087d0002 	ldmdaeq	sp!, {r1}^
	...
 254:	00000370 	andeq	r0, r0, r0, ror r3
 258:	00000374 	andeq	r0, r0, r4, ror r3
 25c:	007d0002 	rsbseq	r0, sp, r2
 260:	00000374 	andeq	r0, r0, r4, ror r3
 264:	00000378 	andeq	r0, r0, r8, ror r3
 268:	047d0002 	ldrbteq	r0, [sp], #-2
 26c:	00000378 	andeq	r0, r0, r8, ror r3
 270:	00000424 	andeq	r0, r0, r4, lsr #8
 274:	107d0002 	rsbsne	r0, sp, r2
	...
 284:	00000004 	andeq	r0, r0, r4
 288:	007d0002 	rsbseq	r0, sp, r2
 28c:	00000004 	andeq	r0, r0, r4
 290:	00000044 	andeq	r0, r0, r4, asr #32
 294:	047d0002 	ldrbteq	r0, [sp], #-2
	...
 2a0:	00000044 	andeq	r0, r0, r4, asr #32
 2a4:	00000048 	andeq	r0, r0, r8, asr #32
 2a8:	007d0002 	rsbseq	r0, sp, r2
 2ac:	00000048 	andeq	r0, r0, r8, asr #32
 2b0:	0000006c 	andeq	r0, r0, ip, rrx
 2b4:	047d0002 	ldrbteq	r0, [sp], #-2
	...
 2c0:	0000006c 	andeq	r0, r0, ip, rrx
 2c4:	00000070 	andeq	r0, r0, r0, ror r0
 2c8:	007d0002 	rsbseq	r0, sp, r2
 2cc:	00000070 	andeq	r0, r0, r0, ror r0
 2d0:	00000098 	muleq	r0, r8, r0
 2d4:	087d0002 	ldmdaeq	sp!, {r1}^
	...
 2e0:	00000098 	muleq	r0, r8, r0
 2e4:	0000009c 	muleq	r0, ip, r0
 2e8:	007d0002 	rsbseq	r0, sp, r2
 2ec:	0000009c 	muleq	r0, ip, r0
 2f0:	000000a0 	andeq	r0, r0, r0, lsr #1
 2f4:	047d0002 	ldrbteq	r0, [sp], #-2
 2f8:	000000a0 	andeq	r0, r0, r0, lsr #1
 2fc:	000001e0 	andeq	r0, r0, r0, ror #3
 300:	287d0002 	ldmdacs	sp!, {r1}^
	...
 30c:	000001e0 	andeq	r0, r0, r0, ror #3
 310:	000001e4 	andeq	r0, r0, r4, ror #3
 314:	007d0002 	rsbseq	r0, sp, r2
 318:	000001e4 	andeq	r0, r0, r4, ror #3
 31c:	00000260 	andeq	r0, r0, r0, ror #4
 320:	087d0002 	ldmdaeq	sp!, {r1}^
	...
 32c:	00000260 	andeq	r0, r0, r0, ror #4
 330:	00000264 	andeq	r0, r0, r4, ror #4
 334:	007d0002 	rsbseq	r0, sp, r2
 338:	00000264 	andeq	r0, r0, r4, ror #4
 33c:	00000388 	andeq	r0, r0, r8, lsl #7
 340:	207d0002 	rsbscs	r0, sp, r2
	...
 34c:	00000388 	andeq	r0, r0, r8, lsl #7
 350:	0000038c 	andeq	r0, r0, ip, lsl #7
 354:	007d0002 	rsbseq	r0, sp, r2
 358:	0000038c 	andeq	r0, r0, ip, lsl #7
 35c:	000003f4 	strdeq	r0, [r0], -r4
 360:	187d0002 	ldmdane	sp!, {r1}^
	...
 36c:	000003f4 	strdeq	r0, [r0], -r4
 370:	000003f8 	strdeq	r0, [r0], -r8
 374:	007d0002 	rsbseq	r0, sp, r2
 378:	000003f8 	strdeq	r0, [r0], -r8
 37c:	000003fc 	strdeq	r0, [r0], -ip
 380:	047d0002 	ldrbteq	r0, [sp], #-2
 384:	000003fc 	strdeq	r0, [r0], -ip
 388:	0000042c 	andeq	r0, r0, ip, lsr #8
 38c:	107d0002 	rsbsne	r0, sp, r2
	...

Disassembly of section .debug_str:

00000000 <.debug_str>:
   0:	41747063 	cmnmi	r4, r3, rrx
   4:	74706300 	ldrbtvc	r6, [r0], #-768	; 0x300
   8:	6d6b0042 	stclvs	0, cr0, [fp, #-264]!	; 0xfffffef8
   c:	006e6961 	rsbeq	r6, lr, r1, ror #18
  10:	6e72656b 	cdpvs	5, 7, cr6, cr2, cr11, {3}
  14:	632e6c65 	teqvs	lr, #25856	; 0x6500
  18:	6f682f00 	svcvs	0x00682f00
  1c:	6c2f656d 	cfstr32vs	mvfx6, [pc], #-436	; fffffe70 <__bss_end+0xffff7240>
  20:	616c6c61 	cmnvs	ip, r1, ror #24
  24:	616c6e69 	cmnvs	ip, r9, ror #28
  28:	6f442f75 	svcvs	0x00442f75
  2c:	656d7563 	strbvs	r7, [sp, #-1379]!	; 0x563
  30:	2f73746e 	svccs	0x0073746e
  34:	2f746967 	svccs	0x00746967
  38:	61786568 	cmnvs	r8, r8, ror #10
  3c:	2d78616d 	ldfcse	f6, [r8, #-436]!	; 0xfffffe4c
  40:	7500736f 	strvc	r7, [r0, #-879]	; 0x36f
  44:	6769736e 	strbvs	r7, [r9, -lr, ror #6]!
  48:	2064656e 	rsbcs	r6, r4, lr, ror #10
  4c:	72616863 	rsbvc	r6, r1, #6488064	; 0x630000
  50:	6f687300 	svcvs	0x00687300
  54:	75207472 	strvc	r7, [r0, #-1138]!	; 0x472
  58:	6769736e 	strbvs	r7, [r9, -lr, ror #6]!
  5c:	2064656e 	rsbcs	r6, r4, lr, ror #10
  60:	00746e69 	rsbseq	r6, r4, r9, ror #28
  64:	636e7566 	cmnvs	lr, #427819008	; 0x19800000
  68:	75660041 	strbvc	r0, [r6, #-65]!	; 0x41
  6c:	0042636e 	subeq	r6, r2, lr, ror #6
  70:	676e6f6c 	strbvs	r6, [lr, -ip, ror #30]!
  74:	6e6f6c20 	cdpvs	12, 6, cr6, cr15, cr0, {1}
  78:	6e752067 	cdpvs	0, 7, cr2, cr5, cr7, {3}
  7c:	6e676973 	mcrvs	9, 3, r6, cr7, cr3, {3}
  80:	69206465 	stmdbvs	r0!, {r0, r2, r5, r6, sl, sp, lr}
  84:	6c00746e 	cfstrsvs	mvf7, [r0], {110}	; 0x6e
  88:	20676e6f 	rsbcs	r6, r7, pc, ror #28
  8c:	676e6f6c 	strbvs	r6, [lr, -ip, ror #30]!
  90:	746e6920 	strbtvc	r6, [lr], #-2336	; 0x920
  94:	554e4700 	strbpl	r4, [lr, #-1792]	; 0x700
  98:	34204320 	strtcc	r4, [r0], #-800	; 0x320
  9c:	312e372e 	teqcc	lr, lr, lsr #14
  a0:	6f687300 	svcvs	0x00687300
  a4:	69207472 	stmdbvs	r0!, {r1, r4, r5, r6, sl, ip, sp, lr}
  a8:	7000746e 	andvc	r7, r0, lr, ror #8
  ac:	6c417968 	mcrrvs	9, 6, r7, r1, cr8
  b0:	2e636f6c 	cdpcs	15, 6, cr6, cr3, cr12, {3}
  b4:	72660063 	rsbvc	r0, r6, #99	; 0x63
  b8:	696c6565 	stmdbvs	ip!, {r0, r2, r5, r6, r8, sl, sp, lr}^
  bc:	68007473 	stmdavs	r0, {r0, r1, r4, r5, r6, sl, ip, sp, lr}
  c0:	5f706165 	svcpl	0x00706165
  c4:	657a6973 	ldrbvs	r6, [sl, #-2419]!	; 0x973
  c8:	65727000 	ldrbvs	r7, [r2, #-0]!
  cc:	65680076 	strbvs	r0, [r8, #-118]!	; 0x76
  d0:	735f7061 	cmpvc	pc, #97	; 0x61
  d4:	74726174 	ldrbtvc	r6, [r2], #-372	; 0x174
  d8:	78656e00 	stmdavc	r5!, {r9, sl, fp, sp, lr}^
  dc:	68700074 	ldmdavs	r0!, {r2, r4, r5, r6}^
  e0:	6c6c4179 	stfvse	f4, [ip], #-484	; 0xfffffe1c
  e4:	615f636f 	cmpvs	pc, pc, ror #6
  e8:	636f6c6c 	cmnvs	pc, #27648	; 0x6c00
  ec:	79687000 	stmdbvc	r8!, {ip, sp, lr}^
  f0:	6f6c6c41 	svcvs	0x006c6c41
  f4:	72665f63 	rsbvc	r5, r6, #396	; 0x18c
  f8:	68006565 	stmdavs	r0, {r0, r2, r5, r6, r8, sl, sp, lr}
  fc:	5f706165 	svcpl	0x00706165
 100:	696d696c 	stmdbvs	sp!, {r2, r3, r5, r6, r8, fp, sp, lr}^
 104:	68700074 	ldmdavs	r0!, {r2, r4, r5, r6}^
 108:	6c6c4179 	stfvse	f4, [ip], #-484	; 0xfffffe1c
 10c:	695f636f 	ldmdbvs	pc, {r0, r1, r2, r3, r5, r6, r8, r9, sp, lr}^	; <UNPREDICTABLE>
 110:	0074696e 	rsbseq	r6, r4, lr, ror #18
 114:	632e7768 	teqvs	lr, #27262976	; 0x1a00000
 118:	64656c00 	strbtvs	r6, [r5], #-3072	; 0xc00
 11c:	006e6f5f 	rsbeq	r6, lr, pc, asr pc
 120:	5f746573 	svcpl	0x00746573
 124:	6b636974 	blvs	18da6fc <__bss_end+0x18d1acc>
 128:	646e615f 	strbtvs	r6, [lr], #-351	; 0x15f
 12c:	616e655f 	cmnvs	lr, pc, asr r5
 130:	5f656c62 	svcpl	0x00656c62
 134:	656d6974 	strbvs	r6, [sp, #-2420]!	; 0x974
 138:	6e690072 	mcrvs	0, 3, r0, cr9, cr2, {3}
 13c:	685f7469 	ldmdavs	pc, {r0, r3, r5, r6, sl, ip, sp, lr}^	; <UNPREDICTABLE>
 140:	656c0077 	strbvs	r0, [ip, #-119]!	; 0x77
 144:	666f5f64 	strbtvs	r5, [pc], -r4, ror #30
 148:	69730066 	ldmdbvs	r3!, {r1, r2, r5, r6}^
 14c:	6350657a 	cmpvs	r0, #511705088	; 0x1e800000
 150:	74630062 	strbtvc	r0, [r3], #-98	; 0x62
 154:	77735f78 			; <UNDEFINED> instruction: 0x77735f78
 158:	68637469 	stmdavs	r3!, {r0, r3, r5, r6, sl, ip, sp, lr}^
 15c:	6f72665f 	svcvs	0x0072665f
 160:	72695f6d 	rsbvc	r5, r9, #436	; 0x1b4
 164:	72610071 	rsbvc	r0, r1, #113	; 0x71
 168:	73007367 	movwvc	r7, #871	; 0x367
 16c:	64656863 	strbtvs	r6, [r5], #-2147	; 0x863
 170:	7300632e 	movwvc	r6, #814	; 0x32e
 174:	5f657661 	svcpl	0x00657661
 178:	63656c65 	cmnvs	r5, #25856	; 0x6500
 17c:	65725f74 	ldrbvs	r5, [r2, #-3956]!	; 0xf74
 180:	726f7473 	rsbvc	r7, pc, #1929379840	; 0x73000000
 184:	53700065 	cmnpl	r0, #101	; 0x65
 188:	65746174 	ldrbvs	r6, [r4, #-372]!	; 0x174
 18c:	65726300 	ldrbvs	r6, [r2, #-768]!	; 0x300
 190:	5f657461 	svcpl	0x00657461
 194:	636f7270 	cmnvs	pc, #7
 198:	00737365 	rsbseq	r7, r3, r5, ror #6
 19c:	4d524554 	cfldr64mi	mvdx4, [r2, #-336]	; 0xfffffeb0
 1a0:	54414e49 	strbpl	r4, [r1], #-3657	; 0xe49
 1a4:	73004445 	movwvc	r4, #1093	; 0x445
 1a8:	6b636174 	blvs	18d8780 <__bss_end+0x18cfb50>
 1ac:	7a69735f 	bvc	1a5cf30 <__bss_end+0x1a54300>
 1b0:	75660065 	strbvc	r0, [r6, #-101]!	; 0x65
 1b4:	6974636e 	ldmdbvs	r4!, {r1, r2, r3, r5, r6, r8, r9, sp, lr}^
 1b8:	6e006e6f 	cdpvs	14, 0, cr6, cr0, cr15, {3}
 1bc:	74537765 	ldrbvc	r7, [r3], #-1893	; 0x765
 1c0:	006b6361 	rsbeq	r6, fp, r1, ror #6
 1c4:	5f787463 	svcpl	0x00787463
 1c8:	74697773 	strbtvc	r7, [r9], #-1907	; 0x773
 1cc:	52006863 	andpl	r6, r0, #6488064	; 0x630000
 1d0:	494e4e55 	stmdbmi	lr, {r0, r2, r4, r6, r9, sl, fp, lr}^
 1d4:	7300474e 	movwvc	r4, #1870	; 0x74e
 1d8:	64656863 	strbtvs	r6, [r5], #-2147	; 0x863
 1dc:	6978655f 	ldmdbvs	r8!, {r0, r1, r2, r3, r4, r6, r8, sl, sp, lr}^
 1e0:	74730074 	ldrbtvc	r0, [r3], #-116	; 0x74
 1e4:	5f747261 	svcpl	0x00747261
 1e8:	72727563 	rsbsvc	r7, r2, #415236096	; 0x18c00000
 1ec:	5f746e65 	svcpl	0x00746e65
 1f0:	636f7270 	cmnvs	pc, #7
 1f4:	00737365 	rsbseq	r7, r3, r5, ror #6
 1f8:	73726966 	cmnvc	r2, #1671168	; 0x198000
 1fc:	72705f74 	rsbsvc	r5, r0, #464	; 0x1d0
 200:	7365636f 	cmnvc	r5, #-1140850687	; 0xbc000001
 204:	45520073 	ldrbmi	r0, [r2, #-115]	; 0x73
 208:	00594441 	subseq	r4, r9, r1, asr #8
 20c:	5077656e 	rsbspl	r6, r7, lr, ror #10
 210:	73006263 	movwvc	r6, #611	; 0x263
 214:	74726174 	ldrbtvc	r6, [r2], #-372	; 0x174
 218:	6863735f 	stmdavs	r3!, {r0, r1, r2, r3, r4, r6, r8, r9, ip, sp, lr}^
 21c:	73006465 	movwvc	r6, #1125	; 0x465
 220:	65746174 	ldrbvs	r6, [r4, #-372]!	; 0x174
 224:	62637000 	rsbvs	r7, r3, #0
 228:	6900735f 	stmdbvs	r0, {r0, r1, r2, r3, r4, r6, r8, r9, ip, sp, lr}
 22c:	5f74696e 	svcpl	0x0074696e
 230:	636f7270 	cmnvs	pc, #7
 234:	00737365 	rsbseq	r7, r3, r5, ror #6
 238:	54494157 	strbpl	r4, [r9], #-343	; 0x157
 23c:	00474e49 	subeq	r4, r7, r9, asr #28
 240:	6d726574 	cfldr64vs	mvdx6, [r2, #-464]!	; 0xfffffe30
 244:	74616e69 	strbtvc	r6, [r1], #-3689	; 0xe69
 248:	72705f65 	rsbsvc	r5, r0, #404	; 0x194
 24c:	7365636f 	cmnvc	r5, #-1140850687	; 0xbc000001
 250:	6c650073 	stclvs	0, cr0, [r5], #-460	; 0xfffffe34
 254:	00746365 	rsbseq	r6, r4, r5, ror #6
 258:	636e7566 	cmnvs	lr, #427819008	; 0x19800000
 25c:	6100745f 	tstvs	r0, pc, asr r4
 260:	735f6772 	cmpvc	pc, #29884416	; 0x1c80000
 264:	696e6900 	stmdbvs	lr!, {r8, fp, sp, lr}^
 268:	63705f74 	cmnvs	r0, #464	; 0x1d0
 26c:	6e690062 	cdpvs	0, 6, cr0, cr9, cr2, {3}
 270:	6b5f7469 	blvs	17dd41c <__bss_end+0x17d47ec>
 274:	5f6e7265 	svcpl	0x006e7265
 278:	6e617274 	mcrvs	2, 3, r7, cr1, cr4, {3}
 27c:	74616c73 	strbtvc	r6, [r1], #-3187	; 0xc73
 280:	5f6e6f69 	svcpl	0x006e6f69
 284:	6c626174 	stfvse	f6, [r2], #-464	; 0xfffffe30
 288:	65730065 	ldrbvs	r0, [r3, #-101]!	; 0x65
 28c:	646e6f63 	strbtvs	r6, [lr], #-3939	; 0xf63
 290:	76656c5f 			; <UNDEFINED> instruction: 0x76656c5f
 294:	695f6c65 	ldmdbvs	pc, {r0, r2, r5, r6, sl, fp, sp, lr}^	; <UNPREDICTABLE>
 298:	63007864 	movwvs	r7, #2148	; 0x864
 29c:	69666e6f 	stmdbvs	r6!, {r0, r1, r2, r3, r5, r6, r9, sl, fp, sp, lr}^
 2a0:	65727567 	ldrbvs	r7, [r2, #-1383]!	; 0x567
 2a4:	756d6d5f 	strbvc	r6, [sp, #-3423]!	; 0xd5f
 2a8:	7000435f 	andvc	r4, r0, pc, asr r3
 2ac:	5f656761 	svcpl	0x00656761
 2b0:	626d756e 	rsbvs	r7, sp, #461373440	; 0x1b800000
 2b4:	66007265 	strvs	r7, [r0], -r5, ror #4
 2b8:	74737269 	ldrbtvc	r7, [r3], #-617	; 0x269
 2bc:	76656c5f 			; <UNDEFINED> instruction: 0x76656c5f
 2c0:	695f6c65 	ldmdbvs	pc, {r0, r2, r5, r6, sl, fp, sp, lr}^	; <UNPREDICTABLE>
 2c4:	76007864 	strvc	r7, [r0], -r4, ror #16
 2c8:	2e6d656d 	cdpcs	5, 6, cr6, cr13, cr13, {3}
 2cc:	6f630063 	svcvs	0x00630063
 2d0:	6f72746e 	svcvs	0x0072746e
 2d4:	6573006c 	ldrbvs	r0, [r3, #-108]!	; 0x6c
 2d8:	6e656d67 	cdpvs	13, 6, cr6, cr5, cr7, {3}
 2dc:	65640074 	strbvs	r0, [r4, #-116]!	; 0x74
 2e0:	65636976 	strbvs	r6, [r3, #-2422]!	; 0x976
 2e4:	616c665f 	cmnvs	ip, pc, asr r6
 2e8:	75007367 	strvc	r7, [r0, #-871]	; 0x367
 2ec:	38746e69 	ldmdacc	r4!, {r0, r3, r5, r6, r9, sl, fp, sp, lr}^
 2f0:	6e00745f 	cfmvsrvs	mvf0, r7
 2f4:	67615062 	strbvs	r5, [r1, -r2, rrx]!
 2f8:	63007365 	movwvs	r7, #869	; 0x365
 2fc:	75706d6f 	ldrbvc	r6, [r0, #-3439]!	; 0xd6f
 300:	61506574 	cmpvs	r0, r4, ror r5
 304:	64416567 	strbvs	r6, [r1], #-1383	; 0x567
 308:	76007264 	strvc	r7, [r0], -r4, ror #4
 30c:	5f6d654d 	svcpl	0x006d654d
 310:	65657266 	strbvs	r7, [r5, #-614]!	; 0x266
 314:	5f317400 	svcpl	0x00317400
 318:	67616c66 	strbvs	r6, [r1, -r6, ror #24]!
 31c:	626e0073 	rsbvs	r0, lr, #115	; 0x73
 320:	65676150 	strbvs	r6, [r7, #-336]!	; 0x150
 324:	5f747000 	svcpl	0x00747000
 328:	72646461 	rsbvc	r6, r4, #1627389952	; 0x61000000
 32c:	654d7600 	strbvs	r7, [sp, #-1536]	; 0x600
 330:	6c615f6d 	stclvs	15, cr5, [r1], #-436	; 0xfffffe4c
 334:	00636f6c 	rsbeq	r6, r3, ip, ror #30
 338:	74696e69 	strbtvc	r6, [r9], #-3689	; 0xe69
 33c:	63636f5f 	cmnvs	r3, #380	; 0x17c
 340:	74617075 	strbtvc	r7, [r1], #-117	; 0x75
 344:	5f6e6f69 	svcpl	0x006e6f69
 348:	6c626174 	stfvse	f6, [r2], #-464	; 0xfffffe30
 34c:	69750065 	ldmdbvs	r5!, {r0, r2, r5, r6}^
 350:	3233746e 	eorscc	r7, r3, #1845493760	; 0x6e000000
 354:	6600745f 			; <UNDEFINED> instruction: 0x6600745f
 358:	656d6172 	strbvs	r6, [sp, #-370]!	; 0x172
 35c:	61747300 	cmnvs	r4, r0, lsl #6
 360:	6d5f7472 	cfldrdvs	mvd7, [pc, #-456]	; 1a0 <_start-0x7e60>
 364:	435f756d 	cmpmi	pc, #457179136	; 0x1b400000
 368:	67617000 	strbvs	r7, [r1, -r0]!
 36c:	64615f65 	strbtvs	r5, [r1], #-3941	; 0xf65
 370:	69007264 	stmdbvs	r0, {r2, r5, r6, r9, ip, sp, lr}
 374:	5f74696e 	svcpl	0x0074696e
 378:	006d656d 	rsbeq	r6, sp, sp, ror #10

Disassembly of section .debug_frame:

00000000 <.debug_frame>:
   0:	0000000c 	andeq	r0, r0, ip
   4:	ffffffff 			; <UNDEFINED> instruction: 0xffffffff
   8:	7c020001 	stcvc	0, cr0, [r2], {1}
   c:	000d0c0e 	andeq	r0, sp, lr, lsl #24
  10:	00000010 	andeq	r0, r0, r0, lsl r0
  14:	00000000 	andeq	r0, r0, r0
  18:	000080d0 	ldrdeq	r8, [r0], -r0
  1c:	0000001c 	andeq	r0, r0, ip, lsl r0
  20:	00080e42 	andeq	r0, r8, r2, asr #28
  24:	00000010 	andeq	r0, r0, r0, lsl r0
  28:	00000000 	andeq	r0, r0, r0
  2c:	000080ec 	andeq	r8, r0, ip, ror #1
  30:	0000001c 	andeq	r0, r0, ip, lsl r0
  34:	00080e42 	andeq	r0, r8, r2, asr #28
  38:	00000014 	andeq	r0, r0, r4, lsl r0
  3c:	00000000 	andeq	r0, r0, r0
  40:	00008108 	andeq	r8, r0, r8, lsl #2
  44:	0000004c 	andeq	r0, r0, ip, asr #32
  48:	8e040e42 	cdphi	14, 0, cr0, cr4, cr2, {2}
  4c:	100e4201 	andne	r4, lr, r1, lsl #4
  50:	0000000c 	andeq	r0, r0, ip
  54:	ffffffff 			; <UNDEFINED> instruction: 0xffffffff
  58:	7c020001 	stcvc	0, cr0, [r2], {1}
  5c:	000d0c0e 	andeq	r0, sp, lr, lsl #24
  60:	00000018 	andeq	r0, r0, r8, lsl r0
  64:	00000050 	andeq	r0, r0, r0, asr r0
  68:	00008154 	andeq	r8, r0, r4, asr r1
  6c:	000000b4 	strheq	r0, [r0], -r4
  70:	84080e42 	strhi	r0, [r8], #-3650	; 0xe42
  74:	42018502 	andmi	r8, r1, #8388608	; 0x800000
  78:	0000100e 	andeq	r1, r0, lr
  7c:	00000014 	andeq	r0, r0, r4, lsl r0
  80:	00000050 	andeq	r0, r0, r0, asr r0
  84:	00008208 	andeq	r8, r0, r8, lsl #4
  88:	00000048 	andeq	r0, r0, r8, asr #32
  8c:	84040e42 	strhi	r0, [r4], #-3650	; 0xe42
  90:	100e4201 	andne	r4, lr, r1, lsl #4
  94:	00000010 	andeq	r0, r0, r0, lsl r0
  98:	00000050 	andeq	r0, r0, r0, asr r0
  9c:	00008250 	andeq	r8, r0, r0, asr r2
  a0:	0000003c 	andeq	r0, r0, ip, lsr r0
  a4:	00080e42 	andeq	r0, r8, r2, asr #28
  a8:	0000000c 	andeq	r0, r0, ip
  ac:	ffffffff 			; <UNDEFINED> instruction: 0xffffffff
  b0:	7c020001 	stcvc	0, cr0, [r2], {1}
  b4:	000d0c0e 	andeq	r0, sp, lr, lsl #24
  b8:	00000014 	andeq	r0, r0, r4, lsl r0
  bc:	000000a8 	andeq	r0, r0, r8, lsr #1
  c0:	0000828c 	andeq	r8, r0, ip, lsl #5
  c4:	0000004c 	andeq	r0, r0, ip, asr #32
  c8:	8e040e42 	cdphi	14, 0, cr0, cr4, cr2, {2}
  cc:	100e4201 	andne	r4, lr, r1, lsl #4
  d0:	00000014 	andeq	r0, r0, r4, lsl r0
  d4:	000000a8 	andeq	r0, r0, r8, lsr #1
  d8:	000082d8 	ldrdeq	r8, [r0], -r8	; <UNPREDICTABLE>
  dc:	00000018 	andeq	r0, r0, r8, lsl r0
  e0:	83080e42 	movwhi	r0, #36418	; 0x8e42
  e4:	00018e02 	andeq	r8, r1, r2, lsl #28
  e8:	00000014 	andeq	r0, r0, r4, lsl r0
  ec:	000000a8 	andeq	r0, r0, r8, lsr #1
  f0:	000082f0 	strdeq	r8, [r0], -r0
  f4:	00000018 	andeq	r0, r0, r8, lsl r0
  f8:	83080e42 	movwhi	r0, #36418	; 0x8e42
  fc:	00018e02 	andeq	r8, r1, r2, lsl #28
 100:	00000014 	andeq	r0, r0, r4, lsl r0
 104:	000000a8 	andeq	r0, r0, r8, lsr #1
 108:	00008308 	andeq	r8, r0, r8, lsl #6
 10c:	000000c0 	andeq	r0, r0, r0, asr #1
 110:	8e040e42 	cdphi	14, 0, cr0, cr4, cr2, {2}
 114:	100e4201 	andne	r4, lr, r1, lsl #4
 118:	0000000c 	andeq	r0, r0, ip
 11c:	ffffffff 			; <UNDEFINED> instruction: 0xffffffff
 120:	7c020001 	stcvc	0, cr0, [r2], {1}
 124:	000d0c0e 	andeq	r0, sp, lr, lsl #24
 128:	00000014 	andeq	r0, r0, r4, lsl r0
 12c:	00000118 	andeq	r0, r0, r8, lsl r1
 130:	000083c8 	andeq	r8, r0, r8, asr #7
 134:	0000007c 	andeq	r0, r0, ip, ror r0
 138:	83080e42 	movwhi	r0, #36418	; 0x8e42
 13c:	00018e02 	andeq	r8, r1, r2, lsl #28
 140:	0000000c 	andeq	r0, r0, ip
 144:	00000118 	andeq	r0, r0, r8, lsl r1
 148:	00008444 	andeq	r8, r0, r4, asr #8
 14c:	00000008 	andeq	r0, r0, r8
 150:	00000010 	andeq	r0, r0, r0, lsl r0
 154:	00000118 	andeq	r0, r0, r8, lsl r1
 158:	0000844c 	andeq	r8, r0, ip, asr #8
 15c:	00000058 	andeq	r0, r0, r8, asr r0
 160:	00100e42 	andseq	r0, r0, r2, asr #28
 164:	00000014 	andeq	r0, r0, r4, lsl r0
 168:	00000118 	andeq	r0, r0, r8, lsl r1
 16c:	000084a4 	andeq	r8, r0, r4, lsr #9
 170:	00000020 	andeq	r0, r0, r0, lsr #32
 174:	83080e42 	movwhi	r0, #36418	; 0x8e42
 178:	00018e02 	andeq	r8, r1, r2, lsl #28
 17c:	00000014 	andeq	r0, r0, r4, lsl r0
 180:	00000118 	andeq	r0, r0, r8, lsl r1
 184:	000084c4 	andeq	r8, r0, r4, asr #9
 188:	00000078 	andeq	r0, r0, r8, ror r0
 18c:	8e040e42 	cdphi	14, 0, cr0, cr4, cr2, {2}
 190:	180e4201 	stmdane	lr, {r0, r9, lr}
 194:	00000014 	andeq	r0, r0, r4, lsl r0
 198:	00000118 	andeq	r0, r0, r8, lsl r1
 19c:	0000853c 	andeq	r8, r0, ip, lsr r5
 1a0:	000000d0 	ldrdeq	r0, [r0], -r0	; <UNPREDICTABLE>
 1a4:	8e040e42 	cdphi	14, 0, cr0, cr4, cr2, {2}
 1a8:	280e4201 	stmdacs	lr, {r0, r9, lr}
 1ac:	0000000c 	andeq	r0, r0, ip
 1b0:	00000118 	andeq	r0, r0, r8, lsl r1
 1b4:	0000860c 	andeq	r8, r0, ip, lsl #12
 1b8:	00000018 	andeq	r0, r0, r8, lsl r0
 1bc:	00000014 	andeq	r0, r0, r4, lsl r0
 1c0:	00000118 	andeq	r0, r0, r8, lsl r1
 1c4:	00008624 	andeq	r8, r0, r4, lsr #12
 1c8:	00000050 	andeq	r0, r0, r0, asr r0
 1cc:	83080e42 	movwhi	r0, #36418	; 0x8e42
 1d0:	00018e02 	andeq	r8, r1, r2, lsl #28
 1d4:	0000000c 	andeq	r0, r0, ip
 1d8:	00000118 	andeq	r0, r0, r8, lsl r1
 1dc:	00008674 	andeq	r8, r0, r4, ror r6
 1e0:	000000c4 	andeq	r0, r0, r4, asr #1
 1e4:	00000014 	andeq	r0, r0, r4, lsl r0
 1e8:	00000118 	andeq	r0, r0, r8, lsl r1
 1ec:	00008738 	andeq	r8, r0, r8, lsr r7
 1f0:	000000b4 	strheq	r0, [r0], -r4
 1f4:	8e040e42 	cdphi	14, 0, cr0, cr4, cr2, {2}
 1f8:	100e4201 	andne	r4, lr, r1, lsl #4
 1fc:	0000000c 	andeq	r0, r0, ip
 200:	ffffffff 			; <UNDEFINED> instruction: 0xffffffff
 204:	7c020001 	stcvc	0, cr0, [r2], {1}
 208:	000d0c0e 	andeq	r0, sp, lr, lsl #24
 20c:	00000014 	andeq	r0, r0, r4, lsl r0
 210:	000001fc 	strdeq	r0, [r0], -ip
 214:	000087ec 	andeq	r8, r0, ip, ror #15
 218:	00000044 	andeq	r0, r0, r4, asr #32
 21c:	84040e42 	strhi	r0, [r4], #-3650	; 0xe42
 220:	00000001 	andeq	r0, r0, r1
 224:	00000014 	andeq	r0, r0, r4, lsl r0
 228:	000001fc 	strdeq	r0, [r0], -ip
 22c:	00008830 	andeq	r8, r0, r0, lsr r8
 230:	00000028 	andeq	r0, r0, r8, lsr #32
 234:	84040e42 	strhi	r0, [r4], #-3650	; 0xe42
 238:	00000001 	andeq	r0, r0, r1
 23c:	00000010 	andeq	r0, r0, r0, lsl r0
 240:	000001fc 	strdeq	r0, [r0], -ip
 244:	00008858 	andeq	r8, r0, r8, asr r8
 248:	0000002c 	andeq	r0, r0, ip, lsr #32
 24c:	00080e42 	andeq	r0, r8, r2, asr #28
 250:	00000014 	andeq	r0, r0, r4, lsl r0
 254:	000001fc 	strdeq	r0, [r0], -ip
 258:	00008884 	andeq	r8, r0, r4, lsl #17
 25c:	00000148 	andeq	r0, r0, r8, asr #2
 260:	8e040e42 	cdphi	14, 0, cr0, cr4, cr2, {2}
 264:	280e4201 	stmdacs	lr, {r0, r9, lr}
 268:	00000010 	andeq	r0, r0, r0, lsl r0
 26c:	000001fc 	strdeq	r0, [r0], -ip
 270:	000089cc 	andeq	r8, r0, ip, asr #19
 274:	00000080 	andeq	r0, r0, r0, lsl #1
 278:	00080e42 	andeq	r0, r8, r2, asr #28
 27c:	00000010 	andeq	r0, r0, r0, lsl r0
 280:	000001fc 	strdeq	r0, [r0], -ip
 284:	00008a4c 	andeq	r8, r0, ip, asr #20
 288:	00000128 	andeq	r0, r0, r8, lsr #2
 28c:	00200e42 	eoreq	r0, r0, r2, asr #28
 290:	00000010 	andeq	r0, r0, r0, lsl r0
 294:	000001fc 	strdeq	r0, [r0], -ip
 298:	00008b74 	andeq	r8, r0, r4, ror fp
 29c:	0000006c 	andeq	r0, r0, ip, rrx
 2a0:	00180e42 	andseq	r0, r8, r2, asr #28
 2a4:	00000014 	andeq	r0, r0, r4, lsl r0
 2a8:	000001fc 	strdeq	r0, [r0], -ip
 2ac:	00008be0 	andeq	r8, r0, r0, ror #23
 2b0:	00000038 	andeq	r0, r0, r8, lsr r0
 2b4:	8e040e42 	cdphi	14, 0, cr0, cr4, cr2, {2}
 2b8:	100e4201 	andne	r4, lr, r1, lsl #4
