
kernel.elf:     file format elf32-littlearm


Disassembly of section .text:

00008000 <_start>:
    8000:	e59ff018 	ldr	pc, [pc, #24]	; 8020 <reset_handler>
    8004:	e59ff018 	ldr	pc, [pc, #24]	; 8024 <undefined_handler>
    8008:	e59ff018 	ldr	pc, [pc, #24]	; 8028 <swi_handler>
    800c:	e59ff018 	ldr	pc, [pc, #24]	; 802c <prefetch_handler>
    8010:	e59ff018 	ldr	pc, [pc, #24]	; 8030 <data_handler>
    8014:	e59ff018 	ldr	pc, [pc, #24]	; 8034 <unused_handler>
    8018:	e59ff018 	ldr	pc, [pc, #24]	; 8038 <irq_handler>
    801c:	e59ff018 	ldr	pc, [pc, #24]	; 803c <fiq_handler>

00008020 <reset_handler>:
    8020:	00008040 	andeq	r8, r0, r0, asr #32

00008024 <undefined_handler>:
    8024:	00008084 	andeq	r8, r0, r4, lsl #1

00008028 <swi_handler>:
    8028:	000080cc 	andeq	r8, r0, ip, asr #1

0000802c <prefetch_handler>:
    802c:	00008088 	andeq	r8, r0, r8, lsl #1

00008030 <data_handler>:
    8030:	0000808c 	andeq	r8, r0, ip, lsl #1

00008034 <unused_handler>:
    8034:	00008090 	muleq	r0, r0, r0

00008038 <irq_handler>:
    8038:	000080c8 	andeq	r8, r0, r8, asr #1

0000803c <fiq_handler>:
    803c:	00008094 	muleq	r0, r4, r0

00008040 <reset>:
    8040:	e3a00902 	mov	r0, #32768	; 0x8000
    8044:	e3a01000 	mov	r1, #0
    8048:	e8b003fc 	ldm	r0!, {r2, r3, r4, r5, r6, r7, r8, r9}
    804c:	e8a103fc 	stmia	r1!, {r2, r3, r4, r5, r6, r7, r8, r9}
    8050:	e8b003fc 	ldm	r0!, {r2, r3, r4, r5, r6, r7, r8, r9}
    8054:	e8a103fc 	stmia	r1!, {r2, r3, r4, r5, r6, r7, r8, r9}
    8058:	e3a000d1 	mov	r0, #209	; 0xd1
    805c:	e121f000 	msr	CPSR_c, r0
    8060:	e3a0d90e 	mov	sp, #229376	; 0x38000
    8064:	e3a000d2 	mov	r0, #210	; 0xd2
    8068:	e121f000 	msr	CPSR_c, r0
    806c:	e3a0d701 	mov	sp, #262144	; 0x40000
    8070:	e3a000d3 	mov	r0, #211	; 0xd3
    8074:	e121f000 	msr	CPSR_c, r0
    8078:	e3a0d912 	mov	sp, #294912	; 0x48000
    807c:	eb00002e 	bl	813c <kmain>

00008080 <hang>:
    8080:	eafffffe 	b	8080 <hang>

00008084 <undefined>:
    8084:	eafffffe 	b	8084 <undefined>

00008088 <prefetch>:
    8088:	eafffffe 	b	8088 <prefetch>

0000808c <data>:
    808c:	eafffffe 	b	808c <data>

00008090 <unused>:
    8090:	eafffffe 	b	8090 <unused>

00008094 <fiq>:
    8094:	eafffffe 	b	8094 <fiq>

00008098 <PUT32>:
    8098:	e5801000 	str	r1, [r0]
    809c:	e12fff1e 	bx	lr

000080a0 <PUT16>:
    80a0:	e1c010b0 	strh	r1, [r0]
    80a4:	e12fff1e 	bx	lr

000080a8 <PUT8>:
    80a8:	e5c01000 	strb	r1, [r0]
    80ac:	e12fff1e 	bx	lr

000080b0 <GET32>:
    80b0:	e5900000 	ldr	r0, [r0]
    80b4:	e12fff1e 	bx	lr

000080b8 <GETPC>:
    80b8:	e1a0000e 	mov	r0, lr
    80bc:	e12fff1e 	bx	lr

000080c0 <BRANCHTO>:
    80c0:	e12fff10 	bx	r0

000080c4 <dummy>:
    80c4:	e12fff1e 	bx	lr

000080c8 <irq>:
    80c8:	ea000216 	b	8928 <ctx_switch_from_irq>

000080cc <swi>:
    80cc:	ea0002a7 	b	8b70 <SWIHandler>

000080d0 <funcA>:
    80d0:	e52de004 	push	{lr}		; (str lr, [sp, #-4]!)
    80d4:	e24dd00c 	sub	sp, sp, #12
    80d8:	e3a03001 	mov	r3, #1
    80dc:	e58d3004 	str	r3, [sp, #4]
    80e0:	ea000002 	b	80f0 <funcA+0x20>
    80e4:	e59d3004 	ldr	r3, [sp, #4]
    80e8:	e2833001 	add	r3, r3, #1
    80ec:	e58d3004 	str	r3, [sp, #4]
    80f0:	e59d3004 	ldr	r3, [sp, #4]
    80f4:	e3530002 	cmp	r3, #2
    80f8:	dafffff9 	ble	80e4 <funcA+0x14>
    80fc:	e3a03001 	mov	r3, #1
    8100:	e5cd3003 	strb	r3, [sp, #3]
    8104:	e5dd3003 	ldrb	r3, [sp, #3]
    8108:	e1a00003 	mov	r0, r3
    810c:	e3a01003 	mov	r1, #3
    8110:	eb0002a5 	bl	8bac <doSysCall>
    8114:	eb000106 	bl	8534 <sched_exit>
    8118:	e28dd00c 	add	sp, sp, #12
    811c:	e8bd8000 	pop	{pc}

00008120 <funcB>:
    8120:	e24dd008 	sub	sp, sp, #8
    8124:	e3a03001 	mov	r3, #1
    8128:	e58d3004 	str	r3, [sp, #4]
    812c:	e59d3004 	ldr	r3, [sp, #4]
    8130:	e2833002 	add	r3, r3, #2
    8134:	e58d3004 	str	r3, [sp, #4]
    8138:	eafffffb 	b	812c <funcB+0xc>

0000813c <kmain>:
    813c:	e92d4008 	push	{r3, lr}
    8140:	eb00007b 	bl	8334 <init_hw>
    8144:	eb0000aa 	bl	83f4 <init_sched>
    8148:	e59f0028 	ldr	r0, [pc, #40]	; 8178 <kmain+0x3c>
    814c:	e3a01000 	mov	r1, #0
    8150:	e3a02e7d 	mov	r2, #2000	; 0x7d0
    8154:	e3a03001 	mov	r3, #1
    8158:	eb000129 	bl	8604 <create_process>
    815c:	e59f0018 	ldr	r0, [pc, #24]	; 817c <kmain+0x40>
    8160:	e3a01000 	mov	r1, #0
    8164:	e3a02e7d 	mov	r2, #2000	; 0x7d0
    8168:	e3a03000 	mov	r3, #0
    816c:	eb000124 	bl	8604 <create_process>
    8170:	eb000251 	bl	8abc <start_sched>
    8174:	eafffffe 	b	8174 <kmain+0x38>
    8178:	00008120 	andeq	r8, r0, r0, lsr #2
    817c:	000080d0 	ldrdeq	r8, [r0], -r0

00008180 <phyAlloc_alloc>:
    8180:	e92d0030 	push	{r4, r5}
    8184:	e24dd008 	sub	sp, sp, #8
    8188:	e58d0004 	str	r0, [sp, #4]
    818c:	e59f3094 	ldr	r3, [pc, #148]	; 8228 <phyAlloc_alloc+0xa8>
    8190:	e5934000 	ldr	r4, [r3]
    8194:	e59f508c 	ldr	r5, [pc, #140]	; 8228 <phyAlloc_alloc+0xa8>
    8198:	ea000001 	b	81a4 <phyAlloc_alloc+0x24>
    819c:	e1a05004 	mov	r5, r4
    81a0:	e5944000 	ldr	r4, [r4]
    81a4:	e3540000 	cmp	r4, #0
    81a8:	0a000003 	beq	81bc <phyAlloc_alloc+0x3c>
    81ac:	e5942004 	ldr	r2, [r4, #4]
    81b0:	e59d3004 	ldr	r3, [sp, #4]
    81b4:	e1520003 	cmp	r2, r3
    81b8:	3afffff7 	bcc	819c <phyAlloc_alloc+0x1c>
    81bc:	e3540000 	cmp	r4, #0
    81c0:	1a000011 	bne	820c <phyAlloc_alloc+0x8c>
    81c4:	e59f3060 	ldr	r3, [pc, #96]	; 822c <phyAlloc_alloc+0xac>
    81c8:	e5934000 	ldr	r4, [r3]
    81cc:	e59f3058 	ldr	r3, [pc, #88]	; 822c <phyAlloc_alloc+0xac>
    81d0:	e5932000 	ldr	r2, [r3]
    81d4:	e59d3004 	ldr	r3, [sp, #4]
    81d8:	e2833003 	add	r3, r3, #3
    81dc:	e3c33003 	bic	r3, r3, #3
    81e0:	e0822003 	add	r2, r2, r3
    81e4:	e59f3040 	ldr	r3, [pc, #64]	; 822c <phyAlloc_alloc+0xac>
    81e8:	e5832000 	str	r2, [r3]
    81ec:	e59f3038 	ldr	r3, [pc, #56]	; 822c <phyAlloc_alloc+0xac>
    81f0:	e5932000 	ldr	r2, [r3]
    81f4:	e59f3034 	ldr	r3, [pc, #52]	; 8230 <phyAlloc_alloc+0xb0>
    81f8:	e5933000 	ldr	r3, [r3]
    81fc:	e1520003 	cmp	r2, r3
    8200:	9a000003 	bls	8214 <phyAlloc_alloc+0x94>
    8204:	e3a03000 	mov	r3, #0
    8208:	ea000002 	b	8218 <phyAlloc_alloc+0x98>
    820c:	e5943000 	ldr	r3, [r4]
    8210:	e5853000 	str	r3, [r5]
    8214:	e1a03004 	mov	r3, r4
    8218:	e1a00003 	mov	r0, r3
    821c:	e28dd008 	add	sp, sp, #8
    8220:	e8bd0030 	pop	{r4, r5}
    8224:	e12fff1e 	bx	lr
    8228:	00008c78 	andeq	r8, r0, r8, ror ip
    822c:	00008c7c 	andeq	r8, r0, ip, ror ip
    8230:	00008c80 	andeq	r8, r0, r0, lsl #25

00008234 <phyAlloc_free>:
    8234:	e52d4004 	push	{r4}		; (str r4, [sp, #-4]!)
    8238:	e24dd00c 	sub	sp, sp, #12
    823c:	e58d0004 	str	r0, [sp, #4]
    8240:	e58d1000 	str	r1, [sp]
    8244:	e59d4004 	ldr	r4, [sp, #4]
    8248:	e59d3000 	ldr	r3, [sp]
    824c:	e2833003 	add	r3, r3, #3
    8250:	e3c33003 	bic	r3, r3, #3
    8254:	e5843004 	str	r3, [r4, #4]
    8258:	e59f3018 	ldr	r3, [pc, #24]	; 8278 <phyAlloc_free+0x44>
    825c:	e5933000 	ldr	r3, [r3]
    8260:	e5843000 	str	r3, [r4]
    8264:	e59f300c 	ldr	r3, [pc, #12]	; 8278 <phyAlloc_free+0x44>
    8268:	e5834000 	str	r4, [r3]
    826c:	e28dd00c 	add	sp, sp, #12
    8270:	e8bd0010 	pop	{r4}
    8274:	e12fff1e 	bx	lr
    8278:	00008c78 	andeq	r8, r0, r8, ror ip

0000827c <phyAlloc_init>:
    827c:	e24dd008 	sub	sp, sp, #8
    8280:	e58d0004 	str	r0, [sp, #4]
    8284:	e58d1000 	str	r1, [sp]
    8288:	e59f3020 	ldr	r3, [pc, #32]	; 82b0 <phyAlloc_init+0x34>
    828c:	e59d2004 	ldr	r2, [sp, #4]
    8290:	e5832000 	str	r2, [r3]
    8294:	e59d2004 	ldr	r2, [sp, #4]
    8298:	e59d3000 	ldr	r3, [sp]
    829c:	e0822003 	add	r2, r2, r3
    82a0:	e59f300c 	ldr	r3, [pc, #12]	; 82b4 <phyAlloc_init+0x38>
    82a4:	e5832000 	str	r2, [r3]
    82a8:	e28dd008 	add	sp, sp, #8
    82ac:	e12fff1e 	bx	lr
    82b0:	00008c7c 	andeq	r8, r0, ip, ror ip
    82b4:	00008c80 	andeq	r8, r0, r0, lsl #25

000082b8 <set_tick_and_enable_timer>:
    82b8:	e52de004 	push	{lr}		; (str lr, [sp, #-4]!)
    82bc:	e24dd00c 	sub	sp, sp, #12
    82c0:	e59f0030 	ldr	r0, [pc, #48]	; 82f8 <set_tick_and_enable_timer+0x40>
    82c4:	ebffff79 	bl	80b0 <GET32>
    82c8:	e58d0004 	str	r0, [sp, #4]
    82cc:	e59d3004 	ldr	r3, [sp, #4]
    82d0:	e2833702 	add	r3, r3, #524288	; 0x80000
    82d4:	e58d3004 	str	r3, [sp, #4]
    82d8:	e59f001c 	ldr	r0, [pc, #28]	; 82fc <set_tick_and_enable_timer+0x44>
    82dc:	e59d1004 	ldr	r1, [sp, #4]
    82e0:	ebffff6c 	bl	8098 <PUT32>
    82e4:	e59f0014 	ldr	r0, [pc, #20]	; 8300 <set_tick_and_enable_timer+0x48>
    82e8:	e3a01002 	mov	r1, #2
    82ec:	ebffff69 	bl	8098 <PUT32>
    82f0:	e28dd00c 	add	sp, sp, #12
    82f4:	e8bd8000 	pop	{pc}
    82f8:	20003004 	andcs	r3, r0, r4
    82fc:	20003010 	andcs	r3, r0, r0, lsl r0
    8300:	20003000 	andcs	r3, r0, r0

00008304 <led_off>:
    8304:	e92d4008 	push	{r3, lr}
    8308:	e59f0008 	ldr	r0, [pc, #8]	; 8318 <led_off+0x14>
    830c:	e3a01801 	mov	r1, #65536	; 0x10000
    8310:	ebffff60 	bl	8098 <PUT32>
    8314:	e8bd8008 	pop	{r3, pc}
    8318:	2020001c 	eorcs	r0, r0, ip, lsl r0

0000831c <led_on>:
    831c:	e92d4008 	push	{r3, lr}
    8320:	e59f0008 	ldr	r0, [pc, #8]	; 8330 <led_on+0x14>
    8324:	e3a01801 	mov	r1, #65536	; 0x10000
    8328:	ebffff5a 	bl	8098 <PUT32>
    832c:	e8bd8008 	pop	{r3, pc}
    8330:	20200028 	eorcs	r0, r0, r8, lsr #32

00008334 <init_hw>:
    8334:	e52de004 	push	{lr}		; (str lr, [sp, #-4]!)
    8338:	e24dd00c 	sub	sp, sp, #12
    833c:	e59f0098 	ldr	r0, [pc, #152]	; 83dc <init_hw+0xa8>
    8340:	ebffff5a 	bl	80b0 <GET32>
    8344:	e58d0004 	str	r0, [sp, #4]
    8348:	e59d3004 	ldr	r3, [sp, #4]
    834c:	e3c33707 	bic	r3, r3, #1835008	; 0x1c0000
    8350:	e58d3004 	str	r3, [sp, #4]
    8354:	e59d3004 	ldr	r3, [sp, #4]
    8358:	e3833701 	orr	r3, r3, #262144	; 0x40000
    835c:	e58d3004 	str	r3, [sp, #4]
    8360:	e59f0074 	ldr	r0, [pc, #116]	; 83dc <init_hw+0xa8>
    8364:	e59d1004 	ldr	r1, [sp, #4]
    8368:	ebffff4a 	bl	8098 <PUT32>
    836c:	e59f006c 	ldr	r0, [pc, #108]	; 83e0 <init_hw+0xac>
    8370:	e3a01801 	mov	r1, #65536	; 0x10000
    8374:	ebffff47 	bl	8098 <PUT32>
    8378:	e59f0064 	ldr	r0, [pc, #100]	; 83e4 <init_hw+0xb0>
    837c:	ebffff4b 	bl	80b0 <GET32>
    8380:	e58d0000 	str	r0, [sp]
    8384:	e59d3000 	ldr	r3, [sp]
    8388:	e2833702 	add	r3, r3, #524288	; 0x80000
    838c:	e58d3000 	str	r3, [sp]
    8390:	e59f0050 	ldr	r0, [pc, #80]	; 83e8 <init_hw+0xb4>
    8394:	e59d1000 	ldr	r1, [sp]
    8398:	ebffff3e 	bl	8098 <PUT32>
    839c:	e59f0048 	ldr	r0, [pc, #72]	; 83ec <init_hw+0xb8>
    83a0:	e3a01002 	mov	r1, #2
    83a4:	ebffff3b 	bl	8098 <PUT32>
    83a8:	e59f0040 	ldr	r0, [pc, #64]	; 83f0 <init_hw+0xbc>
    83ac:	e3a01002 	mov	r1, #2
    83b0:	ebffff38 	bl	8098 <PUT32>
    83b4:	e92d0001 	push	{r0}
    83b8:	e10f0000 	mrs	r0, CPSR
    83bc:	e3800080 	orr	r0, r0, #128	; 0x80
    83c0:	e121f000 	msr	CPSR_c, r0
    83c4:	e8bd0001 	pop	{r0}
    83c8:	e3a00805 	mov	r0, #327680	; 0x50000
    83cc:	e3a01a32 	mov	r1, #204800	; 0x32000
    83d0:	ebffffa9 	bl	827c <phyAlloc_init>
    83d4:	e28dd00c 	add	sp, sp, #12
    83d8:	e8bd8000 	pop	{pc}
    83dc:	20200004 	eorcs	r0, r0, r4
    83e0:	2020001c 	eorcs	r0, r0, ip, lsl r0
    83e4:	20003004 	andcs	r3, r0, r4
    83e8:	20003010 	andcs	r3, r0, r0, lsl r0
    83ec:	20003000 	andcs	r3, r0, r0
    83f0:	2000b210 	andcs	fp, r0, r0, lsl r2

000083f4 <init_sched>:
    83f4:	e59f3014 	ldr	r3, [pc, #20]	; 8410 <init_sched+0x1c>
    83f8:	e3a02013 	mov	r2, #19
    83fc:	e5832000 	str	r2, [r3]
    8400:	e59f300c 	ldr	r3, [pc, #12]	; 8414 <init_sched+0x20>
    8404:	e3a02000 	mov	r2, #0
    8408:	e5832000 	str	r2, [r3]
    840c:	e12fff1e 	bx	lr
    8410:	00008c8c 	andeq	r8, r0, ip, lsl #25
    8414:	00008c84 	andeq	r8, r0, r4, lsl #25

00008418 <save_elect_restore>:
    8418:	e92d4008 	push	{r3, lr}
    841c:	e59f306c 	ldr	r3, [pc, #108]	; 8490 <save_elect_restore+0x78>
    8420:	e5933000 	ldr	r3, [r3]
    8424:	e5d33010 	ldrb	r3, [r3, #16]
    8428:	e3530004 	cmp	r3, #4
    842c:	0a00000c 	beq	8464 <save_elect_restore+0x4c>
    8430:	e92d1fff 	push	{r0, r1, r2, r3, r4, r5, r6, r7, r8, r9, sl, fp, ip}
    8434:	e59f3054 	ldr	r3, [pc, #84]	; 8490 <save_elect_restore+0x78>
    8438:	e5933000 	ldr	r3, [r3]
    843c:	e1a0200d 	mov	r2, sp
    8440:	e5832008 	str	r2, [r3, #8]
    8444:	e59f3044 	ldr	r3, [pc, #68]	; 8490 <save_elect_restore+0x78>
    8448:	e5933000 	ldr	r3, [r3]
    844c:	e1a0200e 	mov	r2, lr
    8450:	e583200c 	str	r2, [r3, #12]
    8454:	e59f3034 	ldr	r3, [pc, #52]	; 8490 <save_elect_restore+0x78>
    8458:	e5933000 	ldr	r3, [r3]
    845c:	e3a02003 	mov	r2, #3
    8460:	e5c32010 	strb	r2, [r3, #16]
    8464:	eb00011d 	bl	88e0 <elect>
    8468:	e59f3020 	ldr	r3, [pc, #32]	; 8490 <save_elect_restore+0x78>
    846c:	e5933000 	ldr	r3, [r3]
    8470:	e3a02002 	mov	r2, #2
    8474:	e5c32010 	strb	r2, [r3, #16]
    8478:	e59f3010 	ldr	r3, [pc, #16]	; 8490 <save_elect_restore+0x78>
    847c:	e5933000 	ldr	r3, [r3]
    8480:	e5933008 	ldr	r3, [r3, #8]
    8484:	e1a0d003 	mov	sp, r3
    8488:	e8bd1fff 	pop	{r0, r1, r2, r3, r4, r5, r6, r7, r8, r9, sl, fp, ip}
    848c:	e8bd8008 	pop	{r3, pc}
    8490:	00008c94 	muleq	r0, r4, ip

00008494 <ctx_switch>:
    8494:	ebffffdf 	bl	8418 <save_elect_restore>
    8498:	eb000099 	bl	8704 <start_current_process>

0000849c <init_pcb>:
    849c:	e24dd010 	sub	sp, sp, #16
    84a0:	e58d000c 	str	r0, [sp, #12]
    84a4:	e58d1008 	str	r1, [sp, #8]
    84a8:	e58d2004 	str	r2, [sp, #4]
    84ac:	e58d3000 	str	r3, [sp]
    84b0:	e59d300c 	ldr	r3, [sp, #12]
    84b4:	e59d2008 	ldr	r2, [sp, #8]
    84b8:	e583200c 	str	r2, [r3, #12]
    84bc:	e59d300c 	ldr	r3, [sp, #12]
    84c0:	e59d2008 	ldr	r2, [sp, #8]
    84c4:	e5832000 	str	r2, [r3]
    84c8:	e59d300c 	ldr	r3, [sp, #12]
    84cc:	e59d2000 	ldr	r2, [sp]
    84d0:	e5832008 	str	r2, [r3, #8]
    84d4:	e59d300c 	ldr	r3, [sp, #12]
    84d8:	e59d2004 	ldr	r2, [sp, #4]
    84dc:	e5832004 	str	r2, [r3, #4]
    84e0:	e59d300c 	ldr	r3, [sp, #12]
    84e4:	e3a02000 	mov	r2, #0
    84e8:	e5c32010 	strb	r2, [r3, #16]
    84ec:	e59d300c 	ldr	r3, [sp, #12]
    84f0:	e3a02000 	mov	r2, #0
    84f4:	e5832014 	str	r2, [r3, #20]
    84f8:	e59d3010 	ldr	r3, [sp, #16]
    84fc:	e3730014 	cmn	r3, #20
    8500:	ba000002 	blt	8510 <init_pcb+0x74>
    8504:	e59d3010 	ldr	r3, [sp, #16]
    8508:	e3530013 	cmp	r3, #19
    850c:	da000003 	ble	8520 <init_pcb+0x84>
    8510:	e59d300c 	ldr	r3, [sp, #12]
    8514:	e3a02013 	mov	r2, #19
    8518:	e583201c 	str	r2, [r3, #28]
    851c:	ea000002 	b	852c <init_pcb+0x90>
    8520:	e59d300c 	ldr	r3, [sp, #12]
    8524:	e59d2010 	ldr	r2, [sp, #16]
    8528:	e583201c 	str	r2, [r3, #28]
    852c:	e28dd010 	add	sp, sp, #16
    8530:	e12fff1e 	bx	lr

00008534 <sched_exit>:
    8534:	e92d4008 	push	{r3, lr}
    8538:	e59f3010 	ldr	r3, [pc, #16]	; 8550 <sched_exit+0x1c>
    853c:	e5933000 	ldr	r3, [r3]
    8540:	e3a02004 	mov	r2, #4
    8544:	e5c32010 	strb	r2, [r3, #16]
    8548:	eb0000e4 	bl	88e0 <elect>
    854c:	e8bd8008 	pop	{r3, pc}
    8550:	00008c94 	muleq	r0, r4, ip

00008554 <terminate_process>:
    8554:	e52de004 	push	{lr}		; (str lr, [sp, #-4]!)
    8558:	e24dd014 	sub	sp, sp, #20
    855c:	e58d0004 	str	r0, [sp, #4]
    8560:	e59d3004 	ldr	r3, [sp, #4]
    8564:	e5933008 	ldr	r3, [r3, #8]
    8568:	e2433e79 	sub	r3, r3, #1936	; 0x790
    856c:	e2433007 	sub	r3, r3, #7
    8570:	e1a00003 	mov	r0, r3
    8574:	e3a01e7d 	mov	r1, #2000	; 0x7d0
    8578:	ebffff2d 	bl	8234 <phyAlloc_free>
    857c:	e59d0004 	ldr	r0, [sp, #4]
    8580:	e3a01020 	mov	r1, #32
    8584:	ebffff2a 	bl	8234 <phyAlloc_free>
    8588:	e3a03013 	mov	r3, #19
    858c:	e58d300c 	str	r3, [sp, #12]
    8590:	e59d3004 	ldr	r3, [sp, #4]
    8594:	e58d3008 	str	r3, [sp, #8]
    8598:	ea00000a 	b	85c8 <terminate_process+0x74>
    859c:	e59d3008 	ldr	r3, [sp, #8]
    85a0:	e593201c 	ldr	r2, [r3, #28]
    85a4:	e59d300c 	ldr	r3, [sp, #12]
    85a8:	e1520003 	cmp	r2, r3
    85ac:	aa000002 	bge	85bc <terminate_process+0x68>
    85b0:	e59d3008 	ldr	r3, [sp, #8]
    85b4:	e593301c 	ldr	r3, [r3, #28]
    85b8:	e58d300c 	str	r3, [sp, #12]
    85bc:	e59d3008 	ldr	r3, [sp, #8]
    85c0:	e5933018 	ldr	r3, [r3, #24]
    85c4:	e58d3008 	str	r3, [sp, #8]
    85c8:	e59d3008 	ldr	r3, [sp, #8]
    85cc:	e5932018 	ldr	r2, [r3, #24]
    85d0:	e59d3004 	ldr	r3, [sp, #4]
    85d4:	e1520003 	cmp	r2, r3
    85d8:	1affffef 	bne	859c <terminate_process+0x48>
    85dc:	e59f301c 	ldr	r3, [pc, #28]	; 8600 <terminate_process+0xac>
    85e0:	e59d200c 	ldr	r2, [sp, #12]
    85e4:	e5832000 	str	r2, [r3]
    85e8:	e59d3004 	ldr	r3, [sp, #4]
    85ec:	e5932018 	ldr	r2, [r3, #24]
    85f0:	e59d3008 	ldr	r3, [sp, #8]
    85f4:	e5832018 	str	r2, [r3, #24]
    85f8:	e28dd014 	add	sp, sp, #20
    85fc:	e8bd8000 	pop	{pc}
    8600:	00008c8c 	andeq	r8, r0, ip, lsl #25

00008604 <create_process>:
    8604:	e52de004 	push	{lr}		; (str lr, [sp, #-4]!)
    8608:	e24dd02c 	sub	sp, sp, #44	; 0x2c
    860c:	e58d0014 	str	r0, [sp, #20]
    8610:	e58d1010 	str	r1, [sp, #16]
    8614:	e58d200c 	str	r2, [sp, #12]
    8618:	e58d3008 	str	r3, [sp, #8]
    861c:	e59d000c 	ldr	r0, [sp, #12]
    8620:	ebfffed6 	bl	8180 <phyAlloc_alloc>
    8624:	e1a03000 	mov	r3, r0
    8628:	e1a02003 	mov	r2, r3
    862c:	e59d300c 	ldr	r3, [sp, #12]
    8630:	e0823003 	add	r3, r2, r3
    8634:	e2433039 	sub	r3, r3, #57	; 0x39
    8638:	e58d3020 	str	r3, [sp, #32]
    863c:	e3a03020 	mov	r3, #32
    8640:	e58d301c 	str	r3, [sp, #28]
    8644:	e59d001c 	ldr	r0, [sp, #28]
    8648:	ebfffecc 	bl	8180 <phyAlloc_alloc>
    864c:	e1a03000 	mov	r3, r0
    8650:	e58d3018 	str	r3, [sp, #24]
    8654:	e59f30a0 	ldr	r3, [pc, #160]	; 86fc <create_process+0xf8>
    8658:	e5933000 	ldr	r3, [r3]
    865c:	e59d2008 	ldr	r2, [sp, #8]
    8660:	e1520003 	cmp	r2, r3
    8664:	aa000002 	bge	8674 <create_process+0x70>
    8668:	e59f308c 	ldr	r3, [pc, #140]	; 86fc <create_process+0xf8>
    866c:	e59d2008 	ldr	r2, [sp, #8]
    8670:	e5832000 	str	r2, [r3]
    8674:	e59f3084 	ldr	r3, [pc, #132]	; 8700 <create_process+0xfc>
    8678:	e5933000 	ldr	r3, [r3]
    867c:	e3530000 	cmp	r3, #0
    8680:	1a000003 	bne	8694 <create_process+0x90>
    8684:	e59f3074 	ldr	r3, [pc, #116]	; 8700 <create_process+0xfc>
    8688:	e59d2018 	ldr	r2, [sp, #24]
    868c:	e5832000 	str	r2, [r3]
    8690:	ea00000d 	b	86cc <create_process+0xc8>
    8694:	e59f3064 	ldr	r3, [pc, #100]	; 8700 <create_process+0xfc>
    8698:	e5933000 	ldr	r3, [r3]
    869c:	e58d3024 	str	r3, [sp, #36]	; 0x24
    86a0:	ea000002 	b	86b0 <create_process+0xac>
    86a4:	e59d3024 	ldr	r3, [sp, #36]	; 0x24
    86a8:	e5933018 	ldr	r3, [r3, #24]
    86ac:	e58d3024 	str	r3, [sp, #36]	; 0x24
    86b0:	e59d3024 	ldr	r3, [sp, #36]	; 0x24
    86b4:	e5933018 	ldr	r3, [r3, #24]
    86b8:	e3530000 	cmp	r3, #0
    86bc:	1afffff8 	bne	86a4 <create_process+0xa0>
    86c0:	e59d3024 	ldr	r3, [sp, #36]	; 0x24
    86c4:	e59d2018 	ldr	r2, [sp, #24]
    86c8:	e5832018 	str	r2, [r3, #24]
    86cc:	e59d3008 	ldr	r3, [sp, #8]
    86d0:	e58d3000 	str	r3, [sp]
    86d4:	e59d0018 	ldr	r0, [sp, #24]
    86d8:	e59d1014 	ldr	r1, [sp, #20]
    86dc:	e59d2010 	ldr	r2, [sp, #16]
    86e0:	e59d3020 	ldr	r3, [sp, #32]
    86e4:	ebffff6c 	bl	849c <init_pcb>
    86e8:	e59d3018 	ldr	r3, [sp, #24]
    86ec:	e3a02001 	mov	r2, #1
    86f0:	e5c32010 	strb	r2, [r3, #16]
    86f4:	e28dd02c 	add	sp, sp, #44	; 0x2c
    86f8:	e8bd8000 	pop	{pc}
    86fc:	00008c8c 	andeq	r8, r0, ip, lsl #25
    8700:	00008c88 	andeq	r8, r0, r8, lsl #25

00008704 <start_current_process>:
    8704:	e59f300c 	ldr	r3, [pc, #12]	; 8718 <start_current_process+0x14>
    8708:	e5933000 	ldr	r3, [r3]
    870c:	e593300c 	ldr	r3, [r3, #12]
    8710:	e12fff13 	bx	r3
    8714:	e12fff1e 	bx	lr
    8718:	00008c94 	muleq	r0, r4, ip

0000871c <elect_with_fixed_priority>:
    871c:	e92d4008 	push	{r3, lr}
    8720:	ea000000 	b	8728 <elect_with_fixed_priority+0xc>
    8724:	e1a00000 	nop			; (mov r0, r0)
    8728:	e59f30b8 	ldr	r3, [pc, #184]	; 87e8 <elect_with_fixed_priority+0xcc>
    872c:	e5933000 	ldr	r3, [r3]
    8730:	e5933018 	ldr	r3, [r3, #24]
    8734:	e5d33010 	ldrb	r3, [r3, #16]
    8738:	e3530004 	cmp	r3, #4
    873c:	1a000004 	bne	8754 <elect_with_fixed_priority+0x38>
    8740:	e59f30a0 	ldr	r3, [pc, #160]	; 87e8 <elect_with_fixed_priority+0xcc>
    8744:	e5933000 	ldr	r3, [r3]
    8748:	e5933018 	ldr	r3, [r3, #24]
    874c:	e1a00003 	mov	r0, r3
    8750:	ebffff7f 	bl	8554 <terminate_process>
    8754:	e59f308c 	ldr	r3, [pc, #140]	; 87e8 <elect_with_fixed_priority+0xcc>
    8758:	e5933000 	ldr	r3, [r3]
    875c:	e5932018 	ldr	r2, [r3, #24]
    8760:	e59f3080 	ldr	r3, [pc, #128]	; 87e8 <elect_with_fixed_priority+0xcc>
    8764:	e5832000 	str	r2, [r3]
    8768:	e59f3078 	ldr	r3, [pc, #120]	; 87e8 <elect_with_fixed_priority+0xcc>
    876c:	e5933000 	ldr	r3, [r3]
    8770:	e593201c 	ldr	r2, [r3, #28]
    8774:	e59f3070 	ldr	r3, [pc, #112]	; 87ec <elect_with_fixed_priority+0xd0>
    8778:	e5933000 	ldr	r3, [r3]
    877c:	e1520003 	cmp	r2, r3
    8780:	1affffe7 	bne	8724 <elect_with_fixed_priority+0x8>
    8784:	e59f305c 	ldr	r3, [pc, #92]	; 87e8 <elect_with_fixed_priority+0xcc>
    8788:	e5933000 	ldr	r3, [r3]
    878c:	e5d33010 	ldrb	r3, [r3, #16]
    8790:	e3530001 	cmp	r3, #1
    8794:	0a000011 	beq	87e0 <elect_with_fixed_priority+0xc4>
    8798:	e59f3048 	ldr	r3, [pc, #72]	; 87e8 <elect_with_fixed_priority+0xcc>
    879c:	e5933000 	ldr	r3, [r3]
    87a0:	e5d33010 	ldrb	r3, [r3, #16]
    87a4:	e3530003 	cmp	r3, #3
    87a8:	1affffdd 	bne	8724 <elect_with_fixed_priority+0x8>
    87ac:	e59f3034 	ldr	r3, [pc, #52]	; 87e8 <elect_with_fixed_priority+0xcc>
    87b0:	e5933000 	ldr	r3, [r3]
    87b4:	e5932014 	ldr	r2, [r3, #20]
    87b8:	e59f3030 	ldr	r3, [pc, #48]	; 87f0 <elect_with_fixed_priority+0xd4>
    87bc:	e5933000 	ldr	r3, [r3]
    87c0:	e1520003 	cmp	r2, r3
    87c4:	3affffd6 	bcc	8724 <elect_with_fixed_priority+0x8>
    87c8:	e59f3018 	ldr	r3, [pc, #24]	; 87e8 <elect_with_fixed_priority+0xcc>
    87cc:	e5933000 	ldr	r3, [r3]
    87d0:	e3a02001 	mov	r2, #1
    87d4:	e5c32010 	strb	r2, [r3, #16]
    87d8:	e1a00000 	nop			; (mov r0, r0)
    87dc:	ea000000 	b	87e4 <elect_with_fixed_priority+0xc8>
    87e0:	e1a00000 	nop			; (mov r0, r0)
    87e4:	e8bd8008 	pop	{r3, pc}
    87e8:	00008c94 	muleq	r0, r4, ip
    87ec:	00008c8c 	andeq	r8, r0, ip, lsl #25
    87f0:	00008c84 	andeq	r8, r0, r4, lsl #25

000087f4 <elect_with_wait>:
    87f4:	e92d4008 	push	{r3, lr}
    87f8:	e59f30dc 	ldr	r3, [pc, #220]	; 88dc <elect_with_wait+0xe8>
    87fc:	e5933000 	ldr	r3, [r3]
    8800:	e5933018 	ldr	r3, [r3, #24]
    8804:	e5d33010 	ldrb	r3, [r3, #16]
    8808:	e3530004 	cmp	r3, #4
    880c:	1a000004 	bne	8824 <elect_with_wait+0x30>
    8810:	e59f30c4 	ldr	r3, [pc, #196]	; 88dc <elect_with_wait+0xe8>
    8814:	e5933000 	ldr	r3, [r3]
    8818:	e5933018 	ldr	r3, [r3, #24]
    881c:	e1a00003 	mov	r0, r3
    8820:	ebffff4b 	bl	8554 <terminate_process>
    8824:	e59f30b0 	ldr	r3, [pc, #176]	; 88dc <elect_with_wait+0xe8>
    8828:	e5933000 	ldr	r3, [r3]
    882c:	e5932018 	ldr	r2, [r3, #24]
    8830:	e59f30a4 	ldr	r3, [pc, #164]	; 88dc <elect_with_wait+0xe8>
    8834:	e5832000 	str	r2, [r3]
    8838:	ea000021 	b	88c4 <elect_with_wait+0xd0>
    883c:	e59f3098 	ldr	r3, [pc, #152]	; 88dc <elect_with_wait+0xe8>
    8840:	e5933000 	ldr	r3, [r3]
    8844:	e5932014 	ldr	r2, [r3, #20]
    8848:	e2422001 	sub	r2, r2, #1
    884c:	e5832014 	str	r2, [r3, #20]
    8850:	e59f3084 	ldr	r3, [pc, #132]	; 88dc <elect_with_wait+0xe8>
    8854:	e5933000 	ldr	r3, [r3]
    8858:	e5933014 	ldr	r3, [r3, #20]
    885c:	e3530000 	cmp	r3, #0
    8860:	1a000008 	bne	8888 <elect_with_wait+0x94>
    8864:	e59f3070 	ldr	r3, [pc, #112]	; 88dc <elect_with_wait+0xe8>
    8868:	e5933000 	ldr	r3, [r3]
    886c:	e3a02000 	mov	r2, #0
    8870:	e5832014 	str	r2, [r3, #20]
    8874:	e59f3060 	ldr	r3, [pc, #96]	; 88dc <elect_with_wait+0xe8>
    8878:	e5933000 	ldr	r3, [r3]
    887c:	e3a02001 	mov	r2, #1
    8880:	e5c32010 	strb	r2, [r3, #16]
    8884:	ea000013 	b	88d8 <elect_with_wait+0xe4>
    8888:	e59f304c 	ldr	r3, [pc, #76]	; 88dc <elect_with_wait+0xe8>
    888c:	e5933000 	ldr	r3, [r3]
    8890:	e5933014 	ldr	r3, [r3, #20]
    8894:	e3730001 	cmn	r3, #1
    8898:	1a000004 	bne	88b0 <elect_with_wait+0xbc>
    889c:	e59f3038 	ldr	r3, [pc, #56]	; 88dc <elect_with_wait+0xe8>
    88a0:	e5933000 	ldr	r3, [r3]
    88a4:	e3a02000 	mov	r2, #0
    88a8:	e5832014 	str	r2, [r3, #20]
    88ac:	ea000009 	b	88d8 <elect_with_wait+0xe4>
    88b0:	e59f3024 	ldr	r3, [pc, #36]	; 88dc <elect_with_wait+0xe8>
    88b4:	e5933000 	ldr	r3, [r3]
    88b8:	e5932018 	ldr	r2, [r3, #24]
    88bc:	e59f3018 	ldr	r3, [pc, #24]	; 88dc <elect_with_wait+0xe8>
    88c0:	e5832000 	str	r2, [r3]
    88c4:	e59f3010 	ldr	r3, [pc, #16]	; 88dc <elect_with_wait+0xe8>
    88c8:	e5933000 	ldr	r3, [r3]
    88cc:	e5d33010 	ldrb	r3, [r3, #16]
    88d0:	e3530003 	cmp	r3, #3
    88d4:	0affffd8 	beq	883c <elect_with_wait+0x48>
    88d8:	e8bd8008 	pop	{r3, pc}
    88dc:	00008c94 	muleq	r0, r4, ip

000088e0 <elect>:
    88e0:	e92d4008 	push	{r3, lr}
    88e4:	ebffff8c 	bl	871c <elect_with_fixed_priority>
    88e8:	e8bd8008 	pop	{r3, pc}

000088ec <waitAndSwitch>:
    88ec:	e52de004 	push	{lr}		; (str lr, [sp, #-4]!)
    88f0:	e24dd00c 	sub	sp, sp, #12
    88f4:	e58d0004 	str	r0, [sp, #4]
    88f8:	e59f3020 	ldr	r3, [pc, #32]	; 8920 <waitAndSwitch+0x34>
    88fc:	e5933000 	ldr	r3, [r3]
    8900:	e59f201c 	ldr	r2, [pc, #28]	; 8924 <waitAndSwitch+0x38>
    8904:	e5921000 	ldr	r1, [r2]
    8908:	e59d2004 	ldr	r2, [sp, #4]
    890c:	e0812002 	add	r2, r1, r2
    8910:	e5832014 	str	r2, [r3, #20]
    8914:	eb00003a 	bl	8a04 <ctx_switch_from_syscall>
    8918:	e28dd00c 	add	sp, sp, #12
    891c:	e8bd8000 	pop	{pc}
    8920:	00008c94 	muleq	r0, r4, ip
    8924:	00008c84 	andeq	r8, r0, r4, lsl #25

00008928 <ctx_switch_from_irq>:
    8928:	e92d0001 	push	{r0}
    892c:	e10f0000 	mrs	r0, CPSR
    8930:	e3800080 	orr	r0, r0, #128	; 0x80
    8934:	e121f000 	msr	CPSR_c, r0
    8938:	e8bd0001 	pop	{r0}
    893c:	e24ee004 	sub	lr, lr, #4
    8940:	f96d0513 	srsdb	sp!, #19
    8944:	e59f30b0 	ldr	r3, [pc, #176]	; 89fc <ctx_switch_from_irq+0xd4>
    8948:	e5933000 	ldr	r3, [r3]
    894c:	e1a0200e 	mov	r2, lr
    8950:	e583200c 	str	r2, [r3, #12]
    8954:	f1020013 	cps	#19
    8958:	e92d1fff 	push	{r0, r1, r2, r3, r4, r5, r6, r7, r8, r9, sl, fp, ip}
    895c:	e59f3098 	ldr	r3, [pc, #152]	; 89fc <ctx_switch_from_irq+0xd4>
    8960:	e5933000 	ldr	r3, [r3]
    8964:	e1a0200d 	mov	r2, sp
    8968:	e5832008 	str	r2, [r3, #8]
    896c:	e59f3088 	ldr	r3, [pc, #136]	; 89fc <ctx_switch_from_irq+0xd4>
    8970:	e5933000 	ldr	r3, [r3]
    8974:	e3a02003 	mov	r2, #3
    8978:	e5c32010 	strb	r2, [r3, #16]
    897c:	e59f307c 	ldr	r3, [pc, #124]	; 8a00 <ctx_switch_from_irq+0xd8>
    8980:	e5933000 	ldr	r3, [r3]
    8984:	e2832001 	add	r2, r3, #1
    8988:	e59f3070 	ldr	r3, [pc, #112]	; 8a00 <ctx_switch_from_irq+0xd8>
    898c:	e5832000 	str	r2, [r3]
    8990:	ebffffd2 	bl	88e0 <elect>
    8994:	e59f3060 	ldr	r3, [pc, #96]	; 89fc <ctx_switch_from_irq+0xd4>
    8998:	e5933000 	ldr	r3, [r3]
    899c:	e5933008 	ldr	r3, [r3, #8]
    89a0:	e1a0d003 	mov	sp, r3
    89a4:	e8bd1fff 	pop	{r0, r1, r2, r3, r4, r5, r6, r7, r8, r9, sl, fp, ip}
    89a8:	ebfffe42 	bl	82b8 <set_tick_and_enable_timer>
    89ac:	e92d0001 	push	{r0}
    89b0:	e10f0000 	mrs	r0, CPSR
    89b4:	e3c00080 	bic	r0, r0, #128	; 0x80
    89b8:	e121f000 	msr	CPSR_c, r0
    89bc:	e8bd0001 	pop	{r0}
    89c0:	e59f3034 	ldr	r3, [pc, #52]	; 89fc <ctx_switch_from_irq+0xd4>
    89c4:	e5933000 	ldr	r3, [r3]
    89c8:	e5d33010 	ldrb	r3, [r3, #16]
    89cc:	e3530001 	cmp	r3, #1
    89d0:	1a000008 	bne	89f8 <ctx_switch_from_irq+0xd0>
    89d4:	e59f3020 	ldr	r3, [pc, #32]	; 89fc <ctx_switch_from_irq+0xd4>
    89d8:	e5933000 	ldr	r3, [r3]
    89dc:	e3a02002 	mov	r2, #2
    89e0:	e5c32010 	strb	r2, [r3, #16]
    89e4:	e59f3010 	ldr	r3, [pc, #16]	; 89fc <ctx_switch_from_irq+0xd4>
    89e8:	e5933000 	ldr	r3, [r3]
    89ec:	e593300c 	ldr	r3, [r3, #12]
    89f0:	e12fff13 	bx	r3
    89f4:	ea000000 	b	89fc <ctx_switch_from_irq+0xd4>
    89f8:	f8bd0a00 	rfeia	sp!
    89fc:	00008c94 	muleq	r0, r4, ip
    8a00:	00008c84 	andeq	r8, r0, r4, lsl #25

00008a04 <ctx_switch_from_syscall>:
    8a04:	e92d0001 	push	{r0}
    8a08:	e10f0000 	mrs	r0, CPSR
    8a0c:	e3800080 	orr	r0, r0, #128	; 0x80
    8a10:	e121f000 	msr	CPSR_c, r0
    8a14:	e8bd0001 	pop	{r0}
    8a18:	e92d1fff 	push	{r0, r1, r2, r3, r4, r5, r6, r7, r8, r9, sl, fp, ip}
    8a1c:	e59f3094 	ldr	r3, [pc, #148]	; 8ab8 <ctx_switch_from_syscall+0xb4>
    8a20:	e5933000 	ldr	r3, [r3]
    8a24:	e1a0200d 	mov	r2, sp
    8a28:	e5832008 	str	r2, [r3, #8]
    8a2c:	e59f3084 	ldr	r3, [pc, #132]	; 8ab8 <ctx_switch_from_syscall+0xb4>
    8a30:	e5933000 	ldr	r3, [r3]
    8a34:	e1a0200e 	mov	r2, lr
    8a38:	e583200c 	str	r2, [r3, #12]
    8a3c:	e59f3074 	ldr	r3, [pc, #116]	; 8ab8 <ctx_switch_from_syscall+0xb4>
    8a40:	e5933000 	ldr	r3, [r3]
    8a44:	e3a02003 	mov	r2, #3
    8a48:	e5c32010 	strb	r2, [r3, #16]
    8a4c:	ebffffa3 	bl	88e0 <elect>
    8a50:	e59f3060 	ldr	r3, [pc, #96]	; 8ab8 <ctx_switch_from_syscall+0xb4>
    8a54:	e5933000 	ldr	r3, [r3]
    8a58:	e5933008 	ldr	r3, [r3, #8]
    8a5c:	e1a0d003 	mov	sp, r3
    8a60:	e8bd1fff 	pop	{r0, r1, r2, r3, r4, r5, r6, r7, r8, r9, sl, fp, ip}
    8a64:	ebfffe13 	bl	82b8 <set_tick_and_enable_timer>
    8a68:	e92d0001 	push	{r0}
    8a6c:	e10f0000 	mrs	r0, CPSR
    8a70:	e3c00080 	bic	r0, r0, #128	; 0x80
    8a74:	e121f000 	msr	CPSR_c, r0
    8a78:	e8bd0001 	pop	{r0}
    8a7c:	e59f3034 	ldr	r3, [pc, #52]	; 8ab8 <ctx_switch_from_syscall+0xb4>
    8a80:	e5933000 	ldr	r3, [r3]
    8a84:	e5d33010 	ldrb	r3, [r3, #16]
    8a88:	e3530001 	cmp	r3, #1
    8a8c:	1a000008 	bne	8ab4 <ctx_switch_from_syscall+0xb0>
    8a90:	e59f3020 	ldr	r3, [pc, #32]	; 8ab8 <ctx_switch_from_syscall+0xb4>
    8a94:	e5933000 	ldr	r3, [r3]
    8a98:	e3a02002 	mov	r2, #2
    8a9c:	e5c32010 	strb	r2, [r3, #16]
    8aa0:	e59f3010 	ldr	r3, [pc, #16]	; 8ab8 <ctx_switch_from_syscall+0xb4>
    8aa4:	e5933000 	ldr	r3, [r3]
    8aa8:	e593300c 	ldr	r3, [r3, #12]
    8aac:	e12fff13 	bx	r3
    8ab0:	ea000000 	b	8ab8 <ctx_switch_from_syscall+0xb4>
    8ab4:	ebffff12 	bl	8704 <start_current_process>
    8ab8:	00008c94 	muleq	r0, r4, ip

00008abc <start_sched>:
    8abc:	e52de004 	push	{lr}		; (str lr, [sp, #-4]!)
    8ac0:	e24dd00c 	sub	sp, sp, #12
    8ac4:	e59f3098 	ldr	r3, [pc, #152]	; 8b64 <start_sched+0xa8>
    8ac8:	e5933000 	ldr	r3, [r3]
    8acc:	e58d3004 	str	r3, [sp, #4]
    8ad0:	ea000002 	b	8ae0 <start_sched+0x24>
    8ad4:	e59d3004 	ldr	r3, [sp, #4]
    8ad8:	e5933018 	ldr	r3, [r3, #24]
    8adc:	e58d3004 	str	r3, [sp, #4]
    8ae0:	e59d3004 	ldr	r3, [sp, #4]
    8ae4:	e5933018 	ldr	r3, [r3, #24]
    8ae8:	e3530000 	cmp	r3, #0
    8aec:	1afffff8 	bne	8ad4 <start_sched+0x18>
    8af0:	e59f306c 	ldr	r3, [pc, #108]	; 8b64 <start_sched+0xa8>
    8af4:	e5932000 	ldr	r2, [r3]
    8af8:	e59d3004 	ldr	r3, [sp, #4]
    8afc:	e5832018 	str	r2, [r3, #24]
    8b00:	e3a03020 	mov	r3, #32
    8b04:	e58d3000 	str	r3, [sp]
    8b08:	e59d0000 	ldr	r0, [sp]
    8b0c:	ebfffd9b 	bl	8180 <phyAlloc_alloc>
    8b10:	e1a03000 	mov	r3, r0
    8b14:	e1a02003 	mov	r2, r3
    8b18:	e59f3048 	ldr	r3, [pc, #72]	; 8b68 <start_sched+0xac>
    8b1c:	e5832000 	str	r2, [r3]
    8b20:	e59f3040 	ldr	r3, [pc, #64]	; 8b68 <start_sched+0xac>
    8b24:	e5933000 	ldr	r3, [r3]
    8b28:	e59f2034 	ldr	r2, [pc, #52]	; 8b64 <start_sched+0xa8>
    8b2c:	e5922000 	ldr	r2, [r2]
    8b30:	e5832018 	str	r2, [r3, #24]
    8b34:	e59f302c 	ldr	r3, [pc, #44]	; 8b68 <start_sched+0xac>
    8b38:	e5932000 	ldr	r2, [r3]
    8b3c:	e59f3028 	ldr	r3, [pc, #40]	; 8b6c <start_sched+0xb0>
    8b40:	e5832000 	str	r2, [r3]
    8b44:	e92d0001 	push	{r0}
    8b48:	e10f0000 	mrs	r0, CPSR
    8b4c:	e3c00080 	bic	r0, r0, #128	; 0x80
    8b50:	e121f000 	msr	CPSR_c, r0
    8b54:	e8bd0001 	pop	{r0}
    8b58:	ebfffdd6 	bl	82b8 <set_tick_and_enable_timer>
    8b5c:	e28dd00c 	add	sp, sp, #12
    8b60:	e8bd8000 	pop	{pc}
    8b64:	00008c88 	andeq	r8, r0, r8, lsl #25
    8b68:	00008c90 	muleq	r0, r0, ip
    8b6c:	00008c94 	muleq	r0, r4, ip

00008b70 <SWIHandler>:
    8b70:	f96d0513 	srsdb	sp!, #19
    8b74:	f1020013 	cps	#19
    8b78:	e1a04000 	mov	r4, r0
    8b7c:	e3540000 	cmp	r4, #0
    8b80:	0a000002 	beq	8b90 <SWIHandler+0x20>
    8b84:	e3540001 	cmp	r4, #1
    8b88:	0a000002 	beq	8b98 <SWIHandler+0x28>
    8b8c:	ea000005 	b	8ba8 <SWIHandler+0x38>
    8b90:	eb000021 	bl	8c1c <doSysCallReboot>
    8b94:	ea000003 	b	8ba8 <SWIHandler+0x38>
    8b98:	e1a04001 	mov	r4, r1
    8b9c:	e1a00004 	mov	r0, r4
    8ba0:	eb000016 	bl	8c00 <doSysCallWait>
    8ba4:	e1a00000 	nop			; (mov r0, r0)
    8ba8:	f8bd0a00 	rfeia	sp!

00008bac <doSysCall>:
    8bac:	e1a02000 	mov	r2, r0
    8bb0:	e1a03001 	mov	r3, r1
    8bb4:	e92d0001 	push	{r0}
    8bb8:	e10f0000 	mrs	r0, CPSR
    8bbc:	e3800080 	orr	r0, r0, #128	; 0x80
    8bc0:	e121f000 	msr	CPSR_c, r0
    8bc4:	e8bd0001 	pop	{r0}
    8bc8:	f96d0513 	srsdb	sp!, #19
    8bcc:	f1020013 	cps	#19
    8bd0:	e1a00002 	mov	r0, r2
    8bd4:	e3530000 	cmp	r3, #0
    8bd8:	0a000000 	beq	8be0 <doSysCall+0x34>
    8bdc:	e1a01003 	mov	r1, r3
    8be0:	ef000000 	svc	0x00000000
    8be4:	ebfffdb3 	bl	82b8 <set_tick_and_enable_timer>
    8be8:	e92d0001 	push	{r0}
    8bec:	e10f0000 	mrs	r0, CPSR
    8bf0:	e3c00080 	bic	r0, r0, #128	; 0x80
    8bf4:	e121f000 	msr	CPSR_c, r0
    8bf8:	e8bd0001 	pop	{r0}
    8bfc:	f8bd0a00 	rfeia	sp!

00008c00 <doSysCallWait>:
    8c00:	e52de004 	push	{lr}		; (str lr, [sp, #-4]!)
    8c04:	e24dd00c 	sub	sp, sp, #12
    8c08:	e58d0004 	str	r0, [sp, #4]
    8c0c:	e59d0004 	ldr	r0, [sp, #4]
    8c10:	eb000011 	bl	8c5c <sys_wait>
    8c14:	e28dd00c 	add	sp, sp, #12
    8c18:	e8bd8000 	pop	{pc}

00008c1c <doSysCallReboot>:
    8c1c:	ebffffff 	bl	8c20 <sys_reboot>

00008c20 <sys_reboot>:
    8c20:	e59f502c 	ldr	r5, [pc, #44]	; 8c54 <sys_reboot+0x34>
    8c24:	e59f702c 	ldr	r7, [pc, #44]	; 8c58 <sys_reboot+0x38>
    8c28:	e3a0445a 	mov	r4, #1509949440	; 0x5a000000
    8c2c:	e3a06020 	mov	r6, #32
    8c30:	e3843001 	orr	r3, r4, #1
    8c34:	e1a00007 	mov	r0, r7
    8c38:	e1a01003 	mov	r1, r3
    8c3c:	ebfffd15 	bl	8098 <PUT32>
    8c40:	e1843006 	orr	r3, r4, r6
    8c44:	e1a00005 	mov	r0, r5
    8c48:	e1a01003 	mov	r1, r3
    8c4c:	ebfffd11 	bl	8098 <PUT32>
    8c50:	eafffffe 	b	8c50 <sys_reboot+0x30>
    8c54:	2010001c 	andscs	r0, r0, ip, lsl r0
    8c58:	20100024 	andscs	r0, r0, r4, lsr #32

00008c5c <sys_wait>:
    8c5c:	e52de004 	push	{lr}		; (str lr, [sp, #-4]!)
    8c60:	e24dd00c 	sub	sp, sp, #12
    8c64:	e58d0004 	str	r0, [sp, #4]
    8c68:	e59d0004 	ldr	r0, [sp, #4]
    8c6c:	ebffff1e 	bl	88ec <waitAndSwitch>
    8c70:	e28dd00c 	add	sp, sp, #12
    8c74:	e8bd8000 	pop	{pc}

Disassembly of section .bss:

00008c78 <freelist>:
    8c78:	00000000 	andeq	r0, r0, r0

00008c7c <top>:
    8c7c:	00000000 	andeq	r0, r0, r0

00008c80 <heap_limit>:
    8c80:	00000000 	andeq	r0, r0, r0

00008c84 <clockTicks>:
    8c84:	00000000 	andeq	r0, r0, r0

00008c88 <first_process>:
    8c88:	00000000 	andeq	r0, r0, r0

00008c8c <highest_priority>:
    8c8c:	00000000 	andeq	r0, r0, r0

00008c90 <init_process>:
    8c90:	00000000 	andeq	r0, r0, r0

00008c94 <current_process>:
    8c94:	00000000 	andeq	r0, r0, r0

Disassembly of section .ARM.attributes:

00000000 <.ARM.attributes>:
   0:	00003141 	andeq	r3, r0, r1, asr #2
   4:	61656100 	cmnvs	r5, r0, lsl #2
   8:	01006962 	tsteq	r0, r2, ror #18
   c:	00000027 	andeq	r0, r0, r7, lsr #32
  10:	005a3605 	subseq	r3, sl, r5, lsl #12
  14:	01080706 	tsteq	r8, r6, lsl #14
  18:	020a0109 	andeq	r0, sl, #1073741826	; 0x40000002
  1c:	01140412 	tsteq	r4, r2, lsl r4
  20:	03170115 	tsteq	r7, #1073741829	; 0x40000005
  24:	011a0118 	tsteq	sl, r8, lsl r1
  28:	011c031b 	tsteq	ip, fp, lsl r3
  2c:	012c0122 	teqeq	ip, r2, lsr #2
  30:	Address 0x0000000000000030 is out of bounds.


Disassembly of section .comment:

00000000 <.comment>:
   0:	3a434347 	bcc	10d0d24 <__bss_end+0x10c808c>
   4:	4e472820 	cdpmi	8, 4, cr2, cr7, cr0, {1}
   8:	34202955 	strtcc	r2, [r0], #-2389	; 0x955
   c:	312e372e 	teqcc	lr, lr, lsr #14
	...

Disassembly of section .debug_line:

00000000 <.debug_line>:
   0:	00000061 	andeq	r0, r0, r1, rrx
   4:	00200002 	eoreq	r0, r0, r2
   8:	01020000 	mrseq	r0, (UNDEF: 2)
   c:	000d0efb 	strdeq	r0, [sp], -fp
  10:	01010101 	tsteq	r1, r1, lsl #2
  14:	01000000 	mrseq	r0, (UNDEF: 0)
  18:	00010000 	andeq	r0, r1, r0
  1c:	74636576 	strbtvc	r6, [r3], #-1398	; 0x576
  20:	2e73726f 	cdpcs	2, 7, cr7, cr3, cr15, {3}
  24:	00000073 	andeq	r0, r0, r3, ror r0
  28:	05000000 	streq	r0, [r0, #-0]
  2c:	00800002 	addeq	r0, r0, r2
  30:	2f2f1900 	svccs	0x002f1900
  34:	2f2f2f2f 	svccs	0x002f2f2f
  38:	080b032f 	stmdaeq	fp, {r0, r1, r2, r3, r5, r8, r9}
  3c:	2f2f2f20 	svccs	0x002f2f20
  40:	2f322f2f 	svccs	0x00322f2f
  44:	2f2f322f 	svccs	0x002f322f
  48:	302f2f31 	eorcc	r2, pc, r1, lsr pc	; <UNPREDICTABLE>
  4c:	2f302f30 	svccs	0x00302f30
  50:	2f322f2f 	svccs	0x00322f2f
  54:	2f322f32 	svccs	0x00322f32
  58:	2f322f32 	svccs	0x00322f32
  5c:	30313232 	eorscc	r3, r1, r2, lsr r2
  60:	01000202 	tsteq	r0, r2, lsl #4
  64:	00006601 	andeq	r6, r0, r1, lsl #12
  68:	2c000200 	sfmcs	f0, 4, [r0], {-0}
  6c:	02000000 	andeq	r0, r0, #0
  70:	0d0efb01 	vstreq	d15, [lr, #-4]
  74:	01010100 	mrseq	r0, (UNDEF: 17)
  78:	00000001 	andeq	r0, r0, r1
  7c:	01000001 	tsteq	r0, r1
  80:	72656b00 	rsbvc	r6, r5, #0
  84:	2e6c656e 	cdpcs	5, 6, cr6, cr12, cr14, {3}
  88:	00000063 	andeq	r0, r0, r3, rrx
  8c:	73797300 	cmnvc	r9, #0
  90:	6c6c6163 	stfvse	f6, [ip], #-396	; 0xfffffe74
  94:	0000682e 	andeq	r6, r0, lr, lsr #16
  98:	00000000 	andeq	r0, r0, r0
  9c:	80d00205 	sbcshi	r0, r0, r5, lsl #4
  a0:	03180000 	tsteq	r8, #0
  a4:	2f4b4a0b 	svccs	0x004b4a0b
  a8:	01040200 	mrseq	r0, R12_usr
  ac:	834b6965 	movthi	r6, #47461	; 0xb965
  b0:	002f4f2f 	eoreq	r4, pc, pc, lsr #30
  b4:	4c010402 	cfstrsmi	mvf0, [r1], {2}
  b8:	01040200 	mrseq	r0, R12_usr
  bc:	2e090367 	cdpcs	3, 0, cr0, cr9, cr7, {3}
  c0:	9f2f2f2f 	svcls	0x002f2f2f
  c4:	0402009f 	streq	r0, [r2], #-159	; 0x9f
  c8:	06022f01 	streq	r2, [r2], -r1, lsl #30
  cc:	59010100 	stmdbpl	r1, {r8}
  d0:	02000000 	andeq	r0, r0, #0
  d4:	00002100 	andeq	r2, r0, r0, lsl #2
  d8:	fb010200 	blx	408e2 <__bss_end+0x37c4a>
  dc:	01000d0e 	tsteq	r0, lr, lsl #26
  e0:	00010101 	andeq	r0, r1, r1, lsl #2
  e4:	00010000 	andeq	r0, r1, r0
  e8:	70000100 	andvc	r0, r0, r0, lsl #2
  ec:	6c417968 	mcrrvs	9, 6, r7, r1, cr8
  f0:	2e636f6c 	cdpcs	15, 6, cr6, cr3, cr12, {3}
  f4:	00000063 	andeq	r0, r0, r3, rrx
  f8:	05000000 	streq	r0, [r0, #-0]
  fc:	00818002 	addeq	r8, r1, r2
 100:	010c0300 	mrseq	r0, LR_mon
 104:	2f2f4c67 	svccs	0x002f4c67
 108:	0402002f 	streq	r0, [r2], #-47	; 0x2f
 10c:	02002c01 	andeq	r2, r0, #256	; 0x100
 110:	4a060204 	bmi	180928 <__bss_end+0x177c90>
 114:	4b4b8606 	blmi	12e1934 <__bss_end+0x12d8c9c>
 118:	4c4cbbf4 	mcrrmi	11, 15, fp, ip, cr4
 11c:	3083da2f 	addcc	sp, r3, pc, lsr #20
 120:	864b6783 	strbhi	r6, [fp], -r3, lsl #15
 124:	029f6767 	addseq	r6, pc, #27000832	; 0x19c0000
 128:	01010008 	tsteq	r1, r8
 12c:	0000004b 	andeq	r0, r0, fp, asr #32
 130:	001b0002 	andseq	r0, fp, r2
 134:	01020000 	mrseq	r0, (UNDEF: 2)
 138:	000d0efb 	strdeq	r0, [sp], -fp
 13c:	01010101 	tsteq	r1, r1, lsl #2
 140:	01000000 	mrseq	r0, (UNDEF: 0)
 144:	00010000 	andeq	r0, r1, r0
 148:	632e7768 	teqvs	lr, #27262976	; 0x1a00000
 14c:	00000000 	andeq	r0, r0, r0
 150:	02050000 	andeq	r0, r5, #0
 154:	000082b8 			; <UNDEFINED> instruction: 0x000082b8
 158:	4b011c03 	blmi	4716c <__bss_end+0x3e4d4>
 15c:	67686767 	strbvs	r6, [r8, -r7, ror #14]!
 160:	2f9e0903 	svccs	0x009e0903
 164:	672f4e67 	strvs	r4, [pc, -r7, ror #28]!
 168:	67674f51 			; <UNDEFINED> instruction: 0x67674f51
 16c:	67696967 	strbvs	r6, [r9, -r7, ror #18]!
 170:	68696a67 	stmdavs	r9!, {r0, r1, r2, r5, r6, r9, fp, sp, lr}^
 174:	100267a0 	andne	r6, r2, r0, lsr #15
 178:	04010100 	streq	r0, [r1], #-256	; 0x100
 17c:	02000001 	andeq	r0, r0, #1
 180:	00002900 	andeq	r2, r0, r0, lsl #18
 184:	fb010200 	blx	4098e <__bss_end+0x37cf6>
 188:	01000d0e 	tsteq	r0, lr, lsl #26
 18c:	00010101 	andeq	r0, r1, r1, lsl #2
 190:	00010000 	andeq	r0, r1, r0
 194:	73000100 	movwvc	r0, #256	; 0x100
 198:	64656863 	strbtvs	r6, [r5], #-2147	; 0x863
 19c:	0000632e 	andeq	r6, r0, lr, lsr #6
 1a0:	63730000 	cmnvs	r3, #0
 1a4:	2e646568 	cdpcs	5, 6, cr6, cr4, cr8, {3}
 1a8:	00000068 	andeq	r0, r0, r8, rrx
 1ac:	05000000 	streq	r0, [r0, #-0]
 1b0:	0083f402 	addeq	pc, r3, r2, lsl #8
 1b4:	010b0300 	mrseq	r0, (UNDEF: 59)
 1b8:	68676713 	stmdavs	r7!, {r0, r1, r4, r8, r9, sl, sp, lr}^
 1bc:	8330a02f 	teqhi	r0, #47	; 0x2f
 1c0:	85308584 	ldrhi	r8, [r0, #-1412]!	; 0x584
 1c4:	134d2f84 	movtne	r2, #57220	; 0xdf84
 1c8:	a014302f 	andsge	r3, r4, pc, lsr #32
 1cc:	67676767 	strbvs	r6, [r7, -r7, ror #14]!
 1d0:	02006767 	andeq	r6, r0, #27000832	; 0x19c0000
 1d4:	66060104 	strvs	r0, [r6], -r4, lsl #2
 1d8:	68856706 	stmvs	r5, {r1, r2, r8, r9, sl, sp, lr}
 1dc:	2f842f4c 	svccs	0x00842f4c
 1e0:	68d7684c 	ldmvs	r7, {r2, r3, r6, fp, sp, lr}^
 1e4:	639f684c 	orrsvs	r6, pc, #4980736	; 0x4c0000
 1e8:	01040200 	mrseq	r0, R12_usr
 1ec:	a4066606 	strge	r6, [r6], #-1542	; 0x606
 1f0:	bc688367 	stcllt	3, cr8, [r8], #-412	; 0xfffffe64
 1f4:	a0844bf5 	strdge	r4, [r4], r5
 1f8:	00878369 	addeq	r8, r7, r9, ror #6
 1fc:	06020402 	streq	r0, [r2], -r2, lsl #8
 200:	04020082 	streq	r0, [r2], #-130	; 0x82
 204:	83066601 	movwhi	r6, #26113	; 0x6601
 208:	8467d76a 	strbthi	sp, [r7], #-1898	; 0x76a
 20c:	034c8313 	movteq	r8, #49939	; 0xc313
 210:	6f034a13 	svcvs	0x00034a13
 214:	9fa0bb2e 	svcls	0x00a0bb2e
 218:	d8a0a1d7 	stmiale	r0!, {r0, r1, r2, r4, r6, r7, r8, sp, pc}
 21c:	4a790383 	bmi	1e41030 <__bss_end+0x1e38398>
 220:	842e0c03 	strthi	r0, [lr], #-3075	; 0xc03
 224:	a0a0bb2f 	adcge	fp, r0, pc, lsr #22
 228:	839f9f2f 	orrshi	r9, pc, #188	; 0xbc
 22c:	839f3083 	orrshi	r3, pc, #131	; 0x83
 230:	04020031 	streq	r0, [r2], #-49	; 0x31
 234:	9e740301 	cdpls	3, 7, cr0, cr4, cr1, {0}
 238:	4c9e0f03 	ldcmi	15, cr0, [lr], {3}
 23c:	67302f2f 	ldrvs	r2, [r0, -pc, lsr #30]!
 240:	138a2fd7 	orrne	r2, sl, #860	; 0x35c
 244:	832f2fa0 	teqhi	pc, #640	; 0x280
 248:	84843031 	strhi	r3, [r4], #49	; 0x31
 24c:	338431a1 	orrcc	r3, r4, #1073741864	; 0x40000028
 250:	839fa02f 	orrshi	sl, pc, #47	; 0x2f
 254:	660a03a1 	strvs	r0, [sl], -r1, lsr #7
 258:	30a11314 	adccc	r1, r1, r4, lsl r3
 25c:	31848483 	orrcc	r8, r4, r3, lsl #9
 260:	a02f3184 	eorge	r3, pc, r4, lsl #3
 264:	4da1839f 	stcmi	3, cr8, [r1, #636]!	; 0x27c
 268:	02004d15 	andeq	r4, r0, #1344	; 0x540
 26c:	82060204 	andhi	r0, r6, #1073741824	; 0x40000000
 270:	01040200 	mrseq	r0, R12_usr
 274:	85830666 	strhi	r0, [r3, #1638]	; 0x666
 278:	849fbb4b 	ldrhi	fp, [pc], #2891	; 280 <_start-0x7d80>
 27c:	0a022f9f 	beq	8c100 <__bss_end+0x83468>
 280:	6c010100 	stfvss	f0, [r1], {-0}
 284:	02000000 	andeq	r0, r0, #0
 288:	00002d00 	andeq	r2, r0, r0, lsl #26
 28c:	fb010200 	blx	40a96 <__bss_end+0x37dfe>
 290:	01000d0e 	tsteq	r0, lr, lsl #26
 294:	00010101 	andeq	r0, r1, r1, lsl #2
 298:	00010000 	andeq	r0, r1, r0
 29c:	73000100 	movwvc	r0, #256	; 0x100
 2a0:	61637379 	smcvs	14137	; 0x3739
 2a4:	632e6c6c 	teqvs	lr, #27648	; 0x6c00
 2a8:	00000000 	andeq	r0, r0, r0
 2ac:	63737973 	cmnvs	r3, #1884160	; 0x1cc000
 2b0:	2e6c6c61 	cdpcs	12, 6, cr6, cr12, cr1, {3}
 2b4:	00000068 	andeq	r0, r0, r8, rrx
 2b8:	05000000 	streq	r0, [r0, #-0]
 2bc:	008b7002 	addeq	r7, fp, r2
 2c0:	2f141700 	svccs	0x00141700
 2c4:	2fa13031 	svccs	0x00a13031
 2c8:	304c2f33 	subcc	r2, ip, r3, lsr pc
 2cc:	a04c142f 	subge	r1, ip, pc, lsr #8
 2d0:	4b30312f 	blmi	c0c794 <__bss_end+0xc03afc>
 2d4:	9f2f3032 	svcls	0x002f3032
 2d8:	4b67162f 	blmi	19c5b9c <__bss_end+0x19bcf04>
 2dc:	162f134c 	strtne	r1, [pc], -ip, asr #6
 2e0:	2f2f2f13 	svccs	0x002f2f13
 2e4:	02008330 	andeq	r8, r0, #-1073741824	; 0xc0000000
 2e8:	69840104 	stmibvs	r4, {r2, r8}
 2ec:	04024b68 	streq	r4, [r2], #-2920	; 0xb68
 2f0:	Address 0x00000000000002f0 is out of bounds.


Disassembly of section .debug_info:

00000000 <.debug_info>:
   0:	00000054 	andeq	r0, r0, r4, asr r0
   4:	00000002 	andeq	r0, r0, r2
   8:	01040000 	mrseq	r0, (UNDEF: 4)
   c:	00000000 	andeq	r0, r0, r0
  10:	00008000 	andeq	r8, r0, r0
  14:	000080d0 	ldrdeq	r8, [r0], -r0
  18:	74636576 	strbtvc	r6, [r3], #-1398	; 0x576
  1c:	2e73726f 	cdpcs	2, 7, cr7, cr3, cr15, {3}
  20:	682f0073 	stmdavs	pc!, {r0, r1, r4, r5, r6}	; <UNPREDICTABLE>
  24:	2f656d6f 	svccs	0x00656d6f
  28:	6f68746d 	svcvs	0x0068746d
  2c:	74746572 	ldrbtvc	r6, [r4], #-1394	; 0x572
  30:	442f6e6f 	strtmi	r6, [pc], #-3695	; 38 <_start-0x7fc8>
  34:	746b7365 	strbtvc	r7, [fp], #-869	; 0x365
  38:	732f706f 	teqvc	pc, #111	; 0x6f
  3c:	682f6165 	stmdavs	pc!, {r0, r2, r5, r6, r8, sp, lr}	; <UNPREDICTABLE>
  40:	6d617865 	stclvs	8, cr7, [r1, #-404]!	; 0xfffffe6c
  44:	6f2d7861 	svcvs	0x002d7861
  48:	4e470073 	mcrmi	0, 2, r0, cr7, cr3, {3}
  4c:	53412055 	movtpl	r2, #4181	; 0x1055
  50:	322e3220 	eorcc	r3, lr, #2
  54:	80010032 	andhi	r0, r1, r2, lsr r0
  58:	000000c1 	andeq	r0, r0, r1, asr #1
  5c:	00140002 	andseq	r0, r4, r2
  60:	01040000 	mrseq	r0, (UNDEF: 4)
  64:	0000000b 	andeq	r0, r0, fp
  68:	00007601 	andeq	r7, r0, r1, lsl #12
  6c:	00004e00 	andeq	r4, r0, r0, lsl #28
  70:	0080d000 	addeq	sp, r0, r0
  74:	00818000 	addeq	r8, r1, r0
  78:	00006500 	andeq	r6, r0, r0, lsl #10
  7c:	07040200 	streq	r0, [r4, -r0, lsl #4]
  80:	0000001f 	andeq	r0, r0, pc, lsl r0
  84:	69050403 	stmdbvs	r5, {r0, r1, sl}
  88:	0400746e 	streq	r7, [r0], #-1134	; 0x46e
  8c:	00000017 	andeq	r0, r0, r7, lsl r0
  90:	4c040201 	sfmmi	f0, 4, [r4], {1}
  94:	05000000 	streq	r0, [r0, #-0]
  98:	00000047 	andeq	r0, r0, r7, asr #32
  9c:	00060500 	andeq	r0, r6, r0, lsl #10
  a0:	00010000 	andeq	r0, r1, r0
  a4:	00410106 	subeq	r0, r1, r6, lsl #2
  a8:	06010000 	streq	r0, [r1], -r0
  ac:	000080d0 	ldrdeq	r8, [r0], -r0
  b0:	00008120 	andeq	r8, r0, r0, lsr #2
  b4:	00000000 	andeq	r0, r0, r0
  b8:	00008201 	andeq	r8, r0, r1, lsl #4
  bc:	00310700 	eorseq	r0, r1, r0, lsl #14
  c0:	12010000 	andne	r0, r1, #0
  c4:	0000002c 	andeq	r0, r0, ip, lsr #32
  c8:	07749102 	ldrbeq	r9, [r4, -r2, lsl #2]!
  cc:	000002f3 	strdeq	r0, [r0], -r3
  d0:	00331601 	eorseq	r1, r3, r1, lsl #12
  d4:	91020000 	mrsls	r0, (UNDEF: 2)
  d8:	01080073 	tsteq	r8, r3, ror r0
  dc:	0000003b 	andeq	r0, r0, fp, lsr r0
  e0:	81201d01 	teqhi	r0, r1, lsl #26
  e4:	813c0000 	teqhi	ip, r0
  e8:	002c0000 	eoreq	r0, ip, r0
  ec:	aa010000 	bge	400f4 <__bss_end+0x3745c>
  f0:	07000000 	streq	r0, [r0, -r0]
  f4:	00000036 	andeq	r0, r0, r6, lsr r0
  f8:	002c1f01 	eoreq	r1, ip, r1, lsl #30
  fc:	91020000 	mrsls	r0, (UNDEF: 2)
 100:	0109007c 	tsteq	r9, ip, ror r0
 104:	00000000 	andeq	r0, r0, r0
 108:	2c012a01 	stccs	10, cr2, [r1], {1}
 10c:	3c000000 	stccc	0, cr0, [r0], {-0}
 110:	80000081 	andhi	r0, r0, r1, lsl #1
 114:	4c000081 	stcmi	0, cr0, [r0], {129}	; 0x81
 118:	01000000 	mrseq	r0, (UNDEF: 0)
 11c:	00015e00 	andeq	r5, r1, r0, lsl #28
 120:	af000200 	svcge	0x00000200
 124:	04000000 	streq	r0, [r0], #-0
 128:	00000b01 	andeq	r0, r0, r1, lsl #22
 12c:	007f0100 	rsbseq	r0, pc, r0, lsl #2
 130:	004e0000 	subeq	r0, lr, r0
 134:	81800000 	orrhi	r0, r0, r0
 138:	82b80000 	adcshi	r0, r8, #0
 13c:	00cf0000 	sbceq	r0, pc, r0
 140:	66020000 	strvs	r0, [r2], -r0
 144:	0108006c 	tsteq	r8, ip, rrx
 148:	00004d03 	andeq	r4, r0, r3, lsl #26
 14c:	00b10300 	adcseq	r0, r1, r0, lsl #6
 150:	04010000 	streq	r0, [r1], #-0
 154:	0000004d 	andeq	r0, r0, sp, asr #32
 158:	03002302 	movweq	r2, #770	; 0x302
 15c:	0000023b 	andeq	r0, r0, fp, lsr r2
 160:	00530501 	subseq	r0, r3, r1, lsl #10
 164:	23020000 	movwcs	r0, #8192	; 0x2000
 168:	04040004 	streq	r0, [r4], #-4
 16c:	00000025 	andeq	r0, r0, r5, lsr #32
 170:	24070405 	strcs	r0, [r7], #-1029	; 0x405
 174:	06000000 	streq	r0, [r0], -r0
 178:	0000b601 	andeq	fp, r0, r1, lsl #12
 17c:	010c0100 	mrseq	r0, (UNDEF: 28)
 180:	0000009f 	muleq	r0, pc, r0	; <UNPREDICTABLE>
 184:	00008180 	andeq	r8, r0, r0, lsl #3
 188:	00008234 	andeq	r8, r0, r4, lsr r2
 18c:	0000006c 	andeq	r0, r0, ip, rrx
 190:	00009f01 	andeq	r9, r0, r1, lsl #30
 194:	023b0700 	eorseq	r0, fp, #0
 198:	0c010000 	stceq	0, cr0, [r1], {-0}
 19c:	00000053 	andeq	r0, r0, r3, asr r0
 1a0:	08749102 	ldmdaeq	r4!, {r1, r8, ip, pc}^
 1a4:	0e010066 	cdpeq	0, 0, cr0, cr1, cr6, {3}
 1a8:	0000004d 	andeq	r0, r0, sp, asr #32
 1ac:	8a095401 	bhi	2551b8 <__bss_end+0x24c520>
 1b0:	01000000 	mrseq	r0, (UNDEF: 0)
 1b4:	0000a10e 	andeq	sl, r0, lr, lsl #2
 1b8:	00550100 	subseq	r0, r5, r0, lsl #2
 1bc:	0404040a 	streq	r0, [r4], #-1034	; 0x40a
 1c0:	0000004d 	andeq	r0, r0, sp, asr #32
 1c4:	0098010b 	addseq	r0, r8, fp, lsl #2
 1c8:	22010000 	andcs	r0, r1, #0
 1cc:	00823401 	addeq	r3, r2, r1, lsl #8
 1d0:	00827c00 	addeq	r7, r2, r0, lsl #24
 1d4:	00009800 	andeq	r9, r0, r0, lsl #16
 1d8:	00e90100 	rsceq	r0, r9, r0, lsl #2
 1dc:	700c0000 	andvc	r0, ip, r0
 1e0:	01007274 	tsteq	r0, r4, ror r2
 1e4:	00009f22 	andeq	r9, r0, r2, lsr #30
 1e8:	74910200 	ldrvc	r0, [r1], #512	; 0x200
 1ec:	00023b07 	andeq	r3, r2, r7, lsl #22
 1f0:	53220100 	teqpl	r2, #0
 1f4:	02000000 	andeq	r0, r0, #0
 1f8:	66087091 			; <UNDEFINED> instruction: 0x66087091
 1fc:	4d240100 	stfmis	f0, [r4, #-0]
 200:	01000000 	mrseq	r0, (UNDEF: 0)
 204:	010b0054 	qaddeq	r0, r4, fp
 208:	000000c5 	andeq	r0, r0, r5, asr #1
 20c:	7c012c01 	stcvc	12, cr2, [r1], {1}
 210:	b8000082 	stmdalt	r0, {r1, r7}
 214:	c4000082 	strgt	r0, [r0], #-130	; 0x82
 218:	01000000 	mrseq	r0, (UNDEF: 0)
 21c:	00000120 	andeq	r0, r0, r0, lsr #2
 220:	0000a607 	andeq	sl, r0, r7, lsl #12
 224:	202c0100 	eorcs	r0, ip, r0, lsl #2
 228:	02000001 	andeq	r0, r0, #1
 22c:	de077c91 	mcrle	12, 0, r7, cr7, cr1, {4}
 230:	01000000 	mrseq	r0, (UNDEF: 0)
 234:	0000532c 	andeq	r5, r0, ip, lsr #6
 238:	78910200 	ldmvc	r1, {r9}
 23c:	26040400 	strcs	r0, [r4], -r0, lsl #8
 240:	05000001 	streq	r0, [r0, #-1]
 244:	00f10801 	rscseq	r0, r1, r1, lsl #16
 248:	74080000 	strvc	r0, [r8], #-0
 24c:	0100706f 	tsteq	r0, pc, rrx
 250:	00012008 	andeq	r2, r1, r8
 254:	7c030500 	cfstr32vc	mvfx0, [r3], {-0}
 258:	0900008c 	stmdbeq	r0, {r2, r3, r7}
 25c:	000000d3 	ldrdeq	r0, [r0], -r3
 260:	01200901 	teqeq	r0, r1, lsl #18
 264:	03050000 	movweq	r0, #20480	; 0x5000
 268:	00008c80 	andeq	r8, r0, r0, lsl #25
 26c:	00008f0d 	andeq	r8, r0, sp, lsl #30
 270:	4d060100 	stfmis	f0, [r6, #-0]
 274:	01000000 	mrseq	r0, (UNDEF: 0)
 278:	8c780305 	ldclhi	3, cr0, [r8], #-20	; 0xffffffec
 27c:	b8000000 	stmdalt	r0, {}	; <UNPREDICTABLE>
 280:	02000000 	andeq	r0, r0, #0
 284:	00017f00 	andeq	r7, r1, r0, lsl #30
 288:	0b010400 	bleq	41290 <__bss_end+0x385f8>
 28c:	01000000 	mrseq	r0, (UNDEF: 0)
 290:	000000fe 	strdeq	r0, [r0], -lr
 294:	0000004e 	andeq	r0, r0, lr, asr #32
 298:	000082b8 			; <UNDEFINED> instruction: 0x000082b8
 29c:	000083f4 	strdeq	r8, [r0], -r4
 2a0:	0000012c 	andeq	r0, r0, ip, lsr #2
 2a4:	24070202 	strcs	r0, [r7], #-514	; 0x202
 2a8:	02000001 	andeq	r0, r0, #1
 2ac:	00240704 	eoreq	r0, r4, r4, lsl #14
 2b0:	01020000 	mrseq	r0, (UNDEF: 2)
 2b4:	0000e808 	andeq	lr, r0, r8, lsl #16
 2b8:	0a010300 	beq	40ec0 <__bss_end+0x38228>
 2bc:	01000001 	tsteq	r0, r1
 2c0:	0082b81c 	addeq	fp, r2, ip, lsl r8
 2c4:	00830400 	addeq	r0, r3, r0, lsl #8
 2c8:	0000e400 	andeq	lr, r0, r0, lsl #8
 2cc:	00610100 	rsbeq	r0, r1, r0, lsl #2
 2d0:	72040000 	andvc	r0, r4, #0
 2d4:	1e010078 	mcrne	0, 0, r0, cr1, cr8, {3}
 2d8:	0000002c 	andeq	r0, r0, ip, lsr #32
 2dc:	00749102 	rsbseq	r9, r4, r2, lsl #2
 2e0:	01370105 	teqeq	r7, r5, lsl #2
 2e4:	2b010000 	blcs	402ec <__bss_end+0x37654>
 2e8:	00008304 	andeq	r8, r0, r4, lsl #6
 2ec:	0000831c 	andeq	r8, r0, ip, lsl r3
 2f0:	00000110 	andeq	r0, r0, r0, lsl r1
 2f4:	03010501 	movweq	r0, #5377	; 0x1501
 2f8:	01000001 	tsteq	r0, r1
 2fc:	00831c31 	addeq	r1, r3, r1, lsr ip
 300:	00833400 	addeq	r3, r3, r0, lsl #8
 304:	00013000 	andeq	r3, r1, r0
 308:	01060100 	mrseq	r0, (UNDEF: 22)
 30c:	000000f6 	strdeq	r0, [r0], -r6
 310:	83343a01 	teqhi	r4, #4096	; 0x1000
 314:	83f40000 	mvnshi	r0, #0
 318:	01500000 	cmpeq	r0, r0
 31c:	04010000 	streq	r0, [r1], #-0
 320:	01006172 	tsteq	r0, r2, ror r1
 324:	00002c3c 	andeq	r2, r0, ip, lsr ip
 328:	74910200 	ldrvc	r0, [r1], #512	; 0x200
 32c:	00787204 	rsbseq	r7, r8, r4, lsl #4
 330:	002c3d01 	eoreq	r3, ip, r1, lsl #26
 334:	91020000 	mrsls	r0, (UNDEF: 2)
 338:	29000070 	stmdbcs	r0, {r4, r5, r6}
 33c:	02000004 	andeq	r0, r0, #4
 340:	0001f100 	andeq	pc, r1, r0, lsl #2
 344:	0b010400 	bleq	4134c <__bss_end+0x386b4>
 348:	01000000 	mrseq	r0, (UNDEF: 0)
 34c:	00000159 	andeq	r0, r0, r9, asr r1
 350:	0000004e 	andeq	r0, r0, lr, asr #32
 354:	000083f4 	strdeq	r8, [r0], -r4
 358:	00008b70 	andeq	r8, r0, r0, ror fp
 35c:	0000017b 	andeq	r0, r0, fp, ror r1
 360:	00029502 	andeq	r9, r2, r2, lsl #10
 364:	300c0200 	andcc	r0, ip, r0, lsl #4
 368:	03000000 	movweq	r0, #0
 36c:	00003604 	andeq	r3, r0, r4, lsl #12
 370:	05010400 	streq	r0, [r1, #-1024]	; 0x400
 374:	00000144 	andeq	r0, r0, r4, asr #2
 378:	630f0201 	movwvs	r0, #61953	; 0xf201
 37c:	06000000 	streq	r0, [r0], -r0
 380:	0057454e 	subseq	r4, r7, lr, asr #10
 384:	022f0700 	eoreq	r0, pc, #0
 388:	07010000 	streq	r0, [r1, -r0]
 38c:	000002d5 	ldrdeq	r0, [r0], -r5
 390:	01510702 	cmpeq	r1, r2, lsl #14
 394:	07030000 	streq	r0, [r3, -r0]
 398:	000002dd 	ldrdeq	r0, [r0], -sp
 39c:	df080004 	svcle	0x00080004
 3a0:	08000001 	stmdaeq	r0, {r0}
 3a4:	008c1102 	addeq	r1, ip, r2, lsl #2
 3a8:	61090000 	mrsvs	r0, (UNDEF: 9)
 3ac:	02006772 	andeq	r6, r0, #29884416	; 0x1c80000
 3b0:	00008c12 	andeq	r8, r0, r2, lsl ip
 3b4:	00230200 	eoreq	r0, r3, r0, lsl #4
 3b8:	0000b10a 	andeq	fp, r0, sl, lsl #2
 3bc:	8e130200 	cdphi	2, 1, cr0, cr3, cr0, {0}
 3c0:	02000000 	andeq	r0, r0, #0
 3c4:	0b000423 	bleq	1458 <_start-0x6ba8>
 3c8:	63040304 	movwvs	r0, #17156	; 0x4304
 3cc:	08000000 	stmdaeq	r0, {}	; <UNPREDICTABLE>
 3d0:	00000185 	andeq	r0, r0, r5, lsl #3
 3d4:	0f160220 	svceq	0x00160220
 3d8:	0a000001 	beq	3e4 <_start-0x7c1c>
 3dc:	000002f8 	strdeq	r0, [r0], -r8
 3e0:	00251702 	eoreq	r1, r5, r2, lsl #14
 3e4:	23020000 	movwcs	r0, #8192	; 0x2000
 3e8:	72610900 	rsbvc	r0, r1, #0
 3ec:	18020067 	stmdane	r2, {r0, r1, r2, r5, r6}
 3f0:	0000008e 	andeq	r0, r0, lr, lsl #1
 3f4:	09042302 	stmdbeq	r4, {r1, r8, r9, sp}
 3f8:	02007073 	andeq	r7, r0, #115	; 0x73
 3fc:	00008c19 	andeq	r8, r0, r9, lsl ip
 400:	08230200 	stmdaeq	r3!, {r9}
 404:	00726c09 	rsbseq	r6, r2, r9, lsl #24
 408:	008c1a02 	addeq	r1, ip, r2, lsl #20
 40c:	23020000 	movwcs	r0, #8192	; 0x2000
 410:	014b0a0c 	cmpeq	fp, ip, lsl #20
 414:	1b020000 	blne	8041c <__bss_end+0x77784>
 418:	00000038 	andeq	r0, r0, r8, lsr r0
 41c:	0a102302 	beq	40902c <__bss_end+0x400394>
 420:	0000016d 	andeq	r0, r0, sp, ror #2
 424:	010f1c02 	tsteq	pc, r2, lsl #24
 428:	23020000 	movwcs	r0, #8192	; 0x2000
 42c:	00b10a14 	adcseq	r0, r1, r4, lsl sl
 430:	1d020000 	stcne	0, cr0, [r2, #-0]
 434:	00000116 	andeq	r0, r0, r6, lsl r1
 438:	0a182302 	beq	609048 <__bss_end+0x6003b0>
 43c:	000001b8 			; <UNDEFINED> instruction: 0x000001b8
 440:	011c1e02 	tsteq	ip, r2, lsl #28
 444:	23020000 	movwcs	r0, #8192	; 0x2000
 448:	040c001c 	streq	r0, [ip], #-28
 44c:	00001f07 	andeq	r1, r0, r7, lsl #30
 450:	94040300 	strls	r0, [r4], #-768	; 0x300
 454:	0d000000 	stceq	0, cr0, [r0, #-0]
 458:	6e690504 	cdpvs	5, 6, cr0, cr9, cr4, {0}
 45c:	010e0074 	tsteq	lr, r4, ror r0
 460:	00000224 	andeq	r0, r0, r4, lsr #4
 464:	83f40b01 	mvnshi	r0, #1024	; 0x400
 468:	84180000 	ldrhi	r0, [r8], #-0
 46c:	7d020000 	stcvc	0, cr0, [r2, #-0]
 470:	010f0100 	mrseq	r0, (UNDEF: 31)
 474:	000002c2 	andeq	r0, r0, r2, asr #5
 478:	84181101 	ldrhi	r1, [r8], #-257	; 0x101
 47c:	84940000 	ldrhi	r0, [r4], #0
 480:	017c0000 	cmneq	ip, r0
 484:	10010000 	andne	r0, r1, r0
 488:	00026d01 	andeq	r6, r2, r1, lsl #26
 48c:	94260100 	strtls	r0, [r6], #-256	; 0x100
 490:	9c000084 	stcls	0, cr0, [r0], {132}	; 0x84
 494:	02000084 	andeq	r0, r0, #132	; 0x84
 498:	7401007d 	strvc	r0, [r1], #-125	; 0x7d
 49c:	11000001 	tstne	r0, r1
 4a0:	00020e01 	andeq	r0, r2, r1, lsl #28
 4a4:	1c290100 	stfnes	f0, [r9], #-0
 4a8:	01000001 	tsteq	r0, r1
 4ac:	13000012 	movwne	r0, #18
 4b0:	00027d01 	andeq	r7, r2, r1, lsl #26
 4b4:	012d0100 	teqeq	sp, r0, lsl #2
 4b8:	0000849c 	muleq	r0, ip, r4
 4bc:	00008534 	andeq	r8, r0, r4, lsr r5
 4c0:	0000019c 	muleq	r0, ip, r1
 4c4:	0001d201 	andeq	sp, r1, r1, lsl #4
 4c8:	63701400 	cmnvs	r0, #0
 4cc:	2d010062 	stccs	0, cr0, [r1, #-392]	; 0xfffffe78
 4d0:	00000116 	andeq	r0, r0, r6, lsl r1
 4d4:	147c9102 	ldrbtne	r9, [ip], #-258	; 0x102
 4d8:	2d010066 	stccs	0, cr0, [r1, #-408]	; 0xfffffe68
 4dc:	00000025 	andeq	r0, r0, r5, lsr #32
 4e0:	14789102 	ldrbtne	r9, [r8], #-258	; 0x102
 4e4:	00677261 	rsbeq	r7, r7, r1, ror #4
 4e8:	008e2d01 	addeq	r2, lr, r1, lsl #26
 4ec:	91020000 	mrsls	r0, (UNDEF: 2)
 4f0:	70731474 	rsbsvc	r1, r3, r4, ror r4
 4f4:	8c2d0100 	stfhis	f0, [sp], #-0
 4f8:	02000000 	andeq	r0, r0, #0
 4fc:	3f157091 	svccc	0x00157091
 500:	01000001 	tsteq	r0, r1
 504:	00011c2d 	andeq	r1, r1, sp, lsr #24
 508:	00910200 	addseq	r0, r1, r0, lsl #4
 50c:	8b010f00 	blhi	44114 <__bss_end+0x3b47c>
 510:	01000001 	tsteq	r0, r1
 514:	0085343d 	addeq	r3, r5, sp, lsr r4
 518:	00855400 	addeq	r5, r5, r0, lsl #8
 51c:	0001bc00 	andeq	fp, r1, r0, lsl #24
 520:	01160100 	tsteq	r6, r0, lsl #2
 524:	00000240 	andeq	r0, r0, r0, asr #4
 528:	54014301 	strpl	r4, [r1], #-769	; 0x301
 52c:	04000085 	streq	r0, [r0], #-133	; 0x85
 530:	dc000086 	stcle	0, cr0, [r0], {134}	; 0x86
 534:	01000001 	tsteq	r0, r1
 538:	0000023d 	andeq	r0, r0, sp, lsr r2
 53c:	62637014 	rsbvs	r7, r3, #20
 540:	16430100 	strbne	r0, [r3], -r0, lsl #2
 544:	02000001 	andeq	r0, r0, #1
 548:	01176c91 			; <UNDEFINED> instruction: 0x01176c91
 54c:	00000098 	muleq	r0, r8, r0
 550:	011c4501 	tsteq	ip, r1, lsl #10
 554:	22010000 	andcs	r0, r1, #0
 558:	12000002 	andne	r0, r0, #2
 55c:	01791800 	cmneq	r9, r0, lsl #16
 560:	48010000 	stmdami	r1, {}	; <UNPREDICTABLE>
 564:	0000011c 	andeq	r0, r0, ip, lsl r1
 568:	19749102 	ldmdbne	r4!, {r1, r8, ip, pc}^
 56c:	49010070 	stmdbmi	r1, {r4, r5, r6}
 570:	00000116 	andeq	r0, r0, r6, lsl r1
 574:	00709102 	rsbseq	r9, r0, r2, lsl #2
 578:	02860116 	addeq	r0, r6, #-2147483643	; 0x80000005
 57c:	54010000 	strpl	r0, [r1], #-0
 580:	00860401 	addeq	r0, r6, r1, lsl #8
 584:	00870400 	addeq	r0, r7, r0, lsl #8
 588:	00020800 	andeq	r0, r2, r0, lsl #16
 58c:	02e10100 	rsceq	r0, r1, #0
 590:	66140000 	ldrvs	r0, [r4], -r0
 594:	25540100 	ldrbcs	r0, [r4, #-256]	; 0x100
 598:	02000000 	andeq	r0, r0, #0
 59c:	78156491 	ldmdavc	r5, {r0, r4, r7, sl, sp, lr}
 5a0:	01000002 	tsteq	r0, r2
 5a4:	00008c54 	andeq	r8, r0, r4, asr ip
 5a8:	60910200 	addsvs	r0, r1, r0, lsl #4
 5ac:	00023515 	andeq	r3, r2, r5, lsl r5
 5b0:	e1540100 	cmp	r4, r0, lsl #2
 5b4:	02000002 	andeq	r0, r0, #2
 5b8:	b8155c91 	ldmdalt	r5, {r0, r4, r7, sl, fp, ip, lr}
 5bc:	01000001 	tsteq	r0, r1
 5c0:	00011c54 	andeq	r1, r1, r4, asr ip
 5c4:	58910200 	ldmpl	r1, {r9}
 5c8:	0001c118 	andeq	ip, r1, r8, lsl r1
 5cc:	8c560100 	ldfhie	f0, [r6], {-0}
 5d0:	02000000 	andeq	r0, r0, #0
 5d4:	01177091 			; <UNDEFINED> instruction: 0x01177091
 5d8:	000000b6 	strheq	r0, [r0], -r6
 5dc:	011c5601 	tsteq	ip, r1, lsl #12
 5e0:	ae010000 	cdpge	0, 0, cr0, cr1, cr0, {0}
 5e4:	12000002 	andne	r0, r0, #2
 5e8:	01d01800 	bicseq	r1, r0, r0, lsl #16
 5ec:	59010000 	stmdbpl	r1, {}	; <UNPREDICTABLE>
 5f0:	0000011c 	andeq	r0, r0, ip, lsl r1
 5f4:	186c9102 	stmdane	ip!, {r1, r8, ip, pc}^
 5f8:	000001d8 	ldrdeq	r0, [r0], -r8
 5fc:	008c5a01 	addeq	r5, ip, r1, lsl #20
 600:	91020000 	mrsls	r0, (UNDEF: 2)
 604:	86941a68 	ldrhi	r1, [r4], r8, ror #20
 608:	86cc0000 	strbhi	r0, [ip], r0
 60c:	70190000 	andsvc	r0, r9, r0
 610:	16660100 	strbtne	r0, [r6], -r0, lsl #2
 614:	02000001 	andeq	r0, r0, #1
 618:	00007491 	muleq	r0, r1, r4
 61c:	2407040c 	strcs	r0, [r7], #-1036	; 0x40c
 620:	0e000000 	cdpeq	0, 0, cr0, cr0, cr0, {0}
 624:	00020e01 	andeq	r0, r2, r1, lsl #28
 628:	04700100 	ldrbteq	r0, [r0], #-256	; 0x100
 62c:	1c000087 	stcne	0, cr0, [r0], {135}	; 0x87
 630:	02000087 	andeq	r0, r0, #135	; 0x87
 634:	0f01007d 	svceq	0x0001007d
 638:	0001a701 	andeq	sl, r1, r1, lsl #14
 63c:	1c740100 	ldfnee	f0, [r4], #-0
 640:	f4000087 	vst4.32	{d0-d3}, [r0], r7
 644:	34000087 	strcc	r0, [r0], #-135	; 0x87
 648:	01000002 	tsteq	r0, r2
 64c:	02e8010f 	rsceq	r0, r8, #-1073741821	; 0xc0000003
 650:	8a010000 	bhi	40658 <__bss_end+0x379c0>
 654:	000087f4 	strdeq	r8, [r0], -r4
 658:	000088e0 	andeq	r8, r0, r0, ror #17
 65c:	00000254 	andeq	r0, r0, r4, asr r2
 660:	ca010f01 	bgt	4426c <__bss_end+0x3b5d4>
 664:	01000001 	tsteq	r0, r1
 668:	0088e0a1 	addeq	lr, r8, r1, lsr #1
 66c:	0088ec00 	addeq	lr, r8, r0, lsl #24
 670:	00027400 	andeq	r7, r2, r0, lsl #8
 674:	01160100 	tsteq	r6, r0, lsl #2
 678:	0000029c 	muleq	r0, ip, r2
 67c:	ec01a501 	cfstr32	mvfx10, [r1], {1}
 680:	28000088 	stmdacs	r0, {r3, r7}
 684:	94000089 	strls	r0, [r0], #-137	; 0x89
 688:	01000002 	tsteq	r0, r2
 68c:	00000364 	andeq	r0, r0, r4, ror #6
 690:	0001e515 	andeq	lr, r1, r5, lsl r5
 694:	e1a50100 			; <UNDEFINED> instruction: 0xe1a50100
 698:	02000002 	andeq	r0, r0, #2
 69c:	1b007491 	blne	1d8e8 <__bss_end+0x14c50>
 6a0:	0001ef01 	andeq	lr, r1, r1, lsl #30
 6a4:	28b00100 	ldmcs	r0!, {r8}
 6a8:	04000089 	streq	r0, [r0], #-137	; 0x89
 6ac:	0200008a 	andeq	r0, r0, #138	; 0x8a
 6b0:	1b01007d 	blne	408ac <__bss_end+0x37c14>
 6b4:	0002aa01 	andeq	sl, r2, r1, lsl #20
 6b8:	04e00100 	strbteq	r0, [r0], #256	; 0x100
 6bc:	bc00008a 	stclt	0, cr0, [r0], {138}	; 0x8a
 6c0:	0200008a 	andeq	r0, r0, #138	; 0x8a
 6c4:	1c01007d 	stcne	0, cr0, [r1], {125}	; 0x7d
 6c8:	00016101 	andeq	r6, r1, r1, lsl #2
 6cc:	01010100 	mrseq	r0, (UNDEF: 17)
 6d0:	00008abc 			; <UNDEFINED> instruction: 0x00008abc
 6d4:	00008b70 	andeq	r8, r0, r0, ror fp
 6d8:	000002c0 	andeq	r0, r0, r0, asr #5
 6dc:	0003d201 	andeq	sp, r3, r1, lsl #4
 6e0:	00701d00 	rsbseq	r1, r0, r0, lsl #26
 6e4:	16010301 	strne	r0, [r1], -r1, lsl #6
 6e8:	02000001 	andeq	r0, r0, #1
 6ec:	d01e7491 	mulsle	lr, r1, r4
 6f0:	01000001 	tsteq	r0, r1
 6f4:	011c0108 	tsteq	ip, r8, lsl #2
 6f8:	91020000 	mrsls	r0, (UNDEF: 2)
 6fc:	b6011170 			; <UNDEFINED> instruction: 0xb6011170
 700:	01000000 	mrseq	r0, (UNDEF: 0)
 704:	00011c56 	andeq	r1, r1, r6, asr ip
 708:	00120100 	andseq	r0, r2, r0, lsl #2
 70c:	02141f00 	andseq	r1, r4, #0
 710:	05010000 	streq	r0, [r1, #-0]
 714:	00000116 	andeq	r0, r0, r6, lsl r1
 718:	94030501 	strls	r0, [r3], #-1281	; 0x501
 71c:	1f00008c 	svcne	0x0000008c
 720:	00000252 	andeq	r0, r0, r2, asr r2
 724:	01160601 	tsteq	r6, r1, lsl #12
 728:	05010000 	streq	r0, [r1, #-0]
 72c:	008c8803 	addeq	r8, ip, r3, lsl #16
 730:	02601f00 	rsbeq	r1, r0, #0
 734:	07010000 	streq	r0, [r1, -r0]
 738:	00000116 	andeq	r0, r0, r6, lsl r1
 73c:	90030501 	andls	r0, r3, r1, lsl #10
 740:	1f00008c 	svcne	0x0000008c
 744:	00000196 	muleq	r0, r6, r1
 748:	011c0801 	tsteq	ip, r1, lsl #16
 74c:	05010000 	streq	r0, [r1, #-0]
 750:	008c8c03 	addeq	r8, ip, r3, lsl #24
 754:	02031f00 	andeq	r1, r3, #0
 758:	09010000 	stmdbeq	r1, {}	; <UNPREDICTABLE>
 75c:	0000010f 	andeq	r0, r0, pc, lsl #2
 760:	84030501 	strhi	r0, [r3], #-1281	; 0x501
 764:	0000008c 	andeq	r0, r0, ip, lsl #1
 768:	00000184 	andeq	r0, r0, r4, lsl #3
 76c:	03d00002 	bicseq	r0, r0, #2
 770:	01040000 	mrseq	r0, (UNDEF: 4)
 774:	0000000b 	andeq	r0, r0, fp
 778:	00039401 	andeq	r9, r3, r1, lsl #8
 77c:	00004e00 	andeq	r4, r0, r0, lsl #28
 780:	008b7000 	addeq	r7, fp, r0
 784:	008c7800 	addeq	r7, ip, r0, lsl #16
 788:	00028300 	andeq	r8, r2, r0, lsl #6
 78c:	00170200 	andseq	r0, r7, r0, lsl #4
 790:	02010000 	andeq	r0, r1, #0
 794:	00003e04 	andeq	r3, r0, r4, lsl #28
 798:	00470300 	subeq	r0, r7, r0, lsl #6
 79c:	03000000 	movweq	r0, #0
 7a0:	00000006 	andeq	r0, r0, r6
 7a4:	04040001 	streq	r0, [r4], #-1
 7a8:	00001f07 	andeq	r1, r0, r7, lsl #30
 7ac:	05040500 	streq	r0, [r4, #-1280]	; 0x500
 7b0:	00746e69 	rsbseq	r6, r4, r9, ror #28
 7b4:	037a0106 	cmneq	sl, #-2147483647	; 0x80000001
 7b8:	05010000 	streq	r0, [r1, #-0]
 7bc:	00008b70 	andeq	r8, r0, r0, ror fp
 7c0:	00008bac 	andeq	r8, r0, ip, lsr #23
 7c4:	01007d02 	tsteq	r0, r2, lsl #26
 7c8:	00000089 	andeq	r0, r0, r9, lsl #1
 7cc:	0002f807 	andeq	pc, r2, r7, lsl #16
 7d0:	450b0100 	strmi	r0, [fp, #-256]	; 0x100
 7d4:	01000000 	mrseq	r0, (UNDEF: 0)
 7d8:	8b980854 	blhi	fe602930 <__bss_end+0xfe5f9c98>
 7dc:	8ba40000 	blhi	fe9007e4 <__bss_end+0xfe8f7b4c>
 7e0:	9e070000 	cdpls	0, 0, cr0, cr7, cr0, {0}
 7e4:	01000003 	tsteq	r0, r3
 7e8:	00008916 	andeq	r8, r0, r6, lsl r9
 7ec:	00540100 	subseq	r0, r4, r0, lsl #2
 7f0:	07040400 	streq	r0, [r4, -r0, lsl #8]
 7f4:	00000024 	andeq	r0, r0, r4, lsr #32
 7f8:	03700109 	cmneq	r0, #1073741826	; 0x40000002
 7fc:	1f010000 	svcne	0x00010000
 800:	008bac01 	addeq	sl, fp, r1, lsl #24
 804:	008c0000 	addeq	r0, ip, r0
 808:	007d0200 	rsbseq	r0, sp, r0, lsl #4
 80c:	0000c401 	andeq	ip, r0, r1, lsl #8
 810:	03850a00 	orreq	r0, r5, #0
 814:	1f010000 	svcne	0x00010000
 818:	00000025 	andeq	r0, r0, r5, lsr #32
 81c:	9e0a5201 	cdpls	2, 0, cr5, cr10, cr1, {0}
 820:	01000003 	tsteq	r0, r3
 824:	0000891f 	andeq	r8, r0, pc, lsl r9
 828:	00530100 	subseq	r0, r3, r0, lsl #2
 82c:	0350010b 	cmpeq	r0, #-1073741822	; 0xc0000002
 830:	37010000 	strcc	r0, [r1, -r0]
 834:	008c0001 	addeq	r0, ip, r1
 838:	008c1c00 	addeq	r1, ip, r0, lsl #24
 83c:	0002ec00 	andeq	lr, r2, r0, lsl #24
 840:	00ed0100 	rsceq	r0, sp, r0, lsl #2
 844:	9e0a0000 	cdpls	0, 0, cr0, cr10, cr0, {0}
 848:	01000003 	tsteq	r0, r3
 84c:	00008937 	andeq	r8, r0, r7, lsr r9
 850:	74910200 	ldrvc	r0, [r1], #512	; 0x200
 854:	40010c00 	andmi	r0, r1, r0, lsl #24
 858:	01000003 	tsteq	r0, r3
 85c:	008c1c3b 	addeq	r1, ip, fp, lsr ip
 860:	008c2000 	addeq	r2, ip, r0
 864:	007d0200 	rsbseq	r0, sp, r0, lsl #4
 868:	09010601 	stmdbeq	r1, {r0, r9, sl}
 86c:	01000003 	tsteq	r0, r3
 870:	008c2041 	addeq	r2, ip, r1, asr #32
 874:	008c5c00 	addeq	r5, ip, r0, lsl #24
 878:	007d0200 	rsbseq	r0, sp, r0, lsl #4
 87c:	00015d01 	andeq	r5, r1, r1, lsl #26
 880:	03010700 	movweq	r0, #5888	; 0x1700
 884:	42010000 	andmi	r0, r1, #0
 888:	0000015d 	andeq	r0, r0, sp, asr r1
 88c:	38075501 	stmdacc	r7, {r0, r8, sl, ip, lr}
 890:	01000003 	tsteq	r0, r3
 894:	00015d43 	andeq	r5, r1, r3, asr #26
 898:	07570100 	ldrbeq	r0, [r7, -r0, lsl #2]
 89c:	00000364 	andeq	r0, r0, r4, ror #6
 8a0:	015d4401 	cmpeq	sp, r1, lsl #8
 8a4:	54010000 	strpl	r0, [r1], #-0
 8a8:	00031f07 	andeq	r1, r3, r7, lsl #30
 8ac:	5d450100 	stfple	f0, [r5, #-0]
 8b0:	01000001 	tsteq	r0, r1
 8b4:	5e010d56 	mcrpl	13, 0, r0, cr1, cr6, {2}
 8b8:	01000003 	tsteq	r0, r3
 8bc:	00004547 	andeq	r4, r0, r7, asr #10
 8c0:	000e0100 	andeq	r0, lr, r0, lsl #2
 8c4:	00450f00 	subeq	r0, r5, r0, lsl #30
 8c8:	01100000 	tsteq	r0, r0
 8cc:	0000038b 	andeq	r0, r0, fp, lsl #7
 8d0:	5c014d01 	stcpl	13, cr4, [r1], {1}
 8d4:	7800008c 	stmdavc	r0, {r2, r3, r7}
 8d8:	1800008c 	stmdane	r0, {r2, r3, r7}
 8dc:	01000003 	tsteq	r0, r3
 8e0:	0003140a 	andeq	r1, r3, sl, lsl #8
 8e4:	894d0100 	stmdbhi	sp, {r8}^
 8e8:	02000000 	andeq	r0, r0, #0
 8ec:	00007491 	muleq	r0, r1, r4

Disassembly of section .debug_abbrev:

00000000 <.debug_abbrev>:
   0:	10001101 	andne	r1, r0, r1, lsl #2
   4:	12011106 	andne	r1, r1, #-2147483647	; 0x80000001
   8:	1b080301 	blne	200c14 <__bss_end+0x1f7f7c>
   c:	13082508 	movwne	r2, #34056	; 0x8508
  10:	00000005 	andeq	r0, r0, r5
  14:	25011101 	strcs	r1, [r1, #-257]	; 0x101
  18:	030b130e 	movweq	r1, #45838	; 0xb30e
  1c:	110e1b0e 	tstne	lr, lr, lsl #22
  20:	10011201 	andne	r1, r1, r1, lsl #4
  24:	02000006 	andeq	r0, r0, #6
  28:	0b0b0024 	bleq	2c00c0 <__bss_end+0x2b7428>
  2c:	0e030b3e 	vmoveq.16	d3[0], r0
  30:	24030000 	strcs	r0, [r3], #-0
  34:	3e0b0b00 	vmlacc.f64	d0, d11, d0
  38:	0008030b 	andeq	r0, r8, fp, lsl #6
  3c:	01040400 	tsteq	r4, r0, lsl #8
  40:	0b0b0e03 	bleq	2c3854 <__bss_end+0x2babbc>
  44:	0b3b0b3a 	bleq	ec2d34 <__bss_end+0xeba09c>
  48:	00001301 	andeq	r1, r0, r1, lsl #6
  4c:	03002805 	movweq	r2, #2053	; 0x805
  50:	000d1c0e 	andeq	r1, sp, lr, lsl #24
  54:	012e0600 	teqeq	lr, r0, lsl #12
  58:	0e030c3f 	mcreq	12, 0, r0, cr3, cr15, {1}
  5c:	0b3b0b3a 	bleq	ec2d4c <__bss_end+0xeba0b4>
  60:	01120111 	tsteq	r2, r1, lsl r1
  64:	42960640 	addsmi	r0, r6, #67108864	; 0x4000000
  68:	0013010c 	andseq	r0, r3, ip, lsl #2
  6c:	00340700 	eorseq	r0, r4, r0, lsl #14
  70:	0b3a0e03 	bleq	e83884 <__bss_end+0xe7abec>
  74:	13490b3b 	movtne	r0, #39739	; 0x9b3b
  78:	00000a02 	andeq	r0, r0, r2, lsl #20
  7c:	3f012e08 	svccc	0x00012e08
  80:	3a0e030c 	bcc	380cb8 <__bss_end+0x378020>
  84:	110b3b0b 	tstne	fp, fp, lsl #22
  88:	40011201 	andmi	r1, r1, r1, lsl #4
  8c:	0c429706 	mcrreq	7, 0, r9, r2, cr6
  90:	00001301 	andeq	r1, r0, r1, lsl #6
  94:	3f002e09 	svccc	0x00002e09
  98:	3a0e030c 	bcc	380cd0 <__bss_end+0x378038>
  9c:	270b3b0b 	strcs	r3, [fp, -fp, lsl #22]
  a0:	1113490c 	tstne	r3, ip, lsl #18
  a4:	40011201 	andmi	r1, r1, r1, lsl #4
  a8:	0c429606 	mcrreq	6, 0, r9, r2, cr6
  ac:	01000000 	mrseq	r0, (UNDEF: 0)
  b0:	0e250111 	mcreq	1, 1, r0, cr5, cr1, {0}
  b4:	0e030b13 	vmoveq.32	d3[0], r0
  b8:	01110e1b 	tsteq	r1, fp, lsl lr
  bc:	06100112 			; <UNDEFINED> instruction: 0x06100112
  c0:	13020000 	movwne	r0, #8192	; 0x2000
  c4:	0b080301 	bleq	200cd0 <__bss_end+0x1f8038>
  c8:	3b0b3a0b 	blcc	2ce8fc <__bss_end+0x2c5c64>
  cc:	0013010b 	andseq	r0, r3, fp, lsl #2
  d0:	000d0300 	andeq	r0, sp, r0, lsl #6
  d4:	0b3a0e03 	bleq	e838e8 <__bss_end+0xe7ac50>
  d8:	13490b3b 	movtne	r0, #39739	; 0x9b3b
  dc:	00000a38 	andeq	r0, r0, r8, lsr sl
  e0:	0b000f04 	bleq	3cf8 <_start-0x4308>
  e4:	0013490b 	andseq	r4, r3, fp, lsl #18
  e8:	00240500 	eoreq	r0, r4, r0, lsl #10
  ec:	0b3e0b0b 	bleq	f82d20 <__bss_end+0xf7a088>
  f0:	00000e03 	andeq	r0, r0, r3, lsl #28
  f4:	3f012e06 	svccc	0x00012e06
  f8:	3a0e030c 	bcc	380d30 <__bss_end+0x378098>
  fc:	270b3b0b 	strcs	r3, [fp, -fp, lsl #22]
 100:	1113490c 	tstne	r3, ip, lsl #18
 104:	40011201 	andmi	r1, r1, r1, lsl #4
 108:	0c429706 	mcrreq	7, 0, r9, r2, cr6
 10c:	00001301 	andeq	r1, r0, r1, lsl #6
 110:	03000507 	movweq	r0, #1287	; 0x507
 114:	3b0b3a0e 	blcc	2ce954 <__bss_end+0x2c5cbc>
 118:	0213490b 	andseq	r4, r3, #180224	; 0x2c000
 11c:	0800000a 	stmdaeq	r0, {r1, r3}
 120:	08030034 	stmdaeq	r3, {r2, r4, r5}
 124:	0b3b0b3a 	bleq	ec2e14 <__bss_end+0xeba17c>
 128:	0a021349 	beq	84e54 <__bss_end+0x7c1bc>
 12c:	34090000 	strcc	r0, [r9], #-0
 130:	3a0e0300 	bcc	380d38 <__bss_end+0x3780a0>
 134:	490b3b0b 	stmdbmi	fp, {r0, r1, r3, r8, r9, fp, ip, sp}
 138:	000a0213 	andeq	r0, sl, r3, lsl r2
 13c:	000f0a00 	andeq	r0, pc, r0, lsl #20
 140:	00000b0b 	andeq	r0, r0, fp, lsl #22
 144:	3f012e0b 	svccc	0x00012e0b
 148:	3a0e030c 	bcc	380d80 <__bss_end+0x3780e8>
 14c:	270b3b0b 	strcs	r3, [fp, -fp, lsl #22]
 150:	1201110c 	andne	r1, r1, #3
 154:	97064001 	strls	r4, [r6, -r1]
 158:	13010c42 	movwne	r0, #7234	; 0x1c42
 15c:	050c0000 	streq	r0, [ip, #-0]
 160:	3a080300 	bcc	200d68 <__bss_end+0x1f80d0>
 164:	490b3b0b 	stmdbmi	fp, {r0, r1, r3, r8, r9, fp, ip, sp}
 168:	000a0213 	andeq	r0, sl, r3, lsl r2
 16c:	00340d00 	eorseq	r0, r4, r0, lsl #26
 170:	0b3a0e03 	bleq	e83984 <__bss_end+0xe7acec>
 174:	13490b3b 	movtne	r0, #39739	; 0x9b3b
 178:	0a020c3f 	beq	8327c <__bss_end+0x7a5e4>
 17c:	01000000 	mrseq	r0, (UNDEF: 0)
 180:	0e250111 	mcreq	1, 1, r0, cr5, cr1, {0}
 184:	0e030b13 	vmoveq.32	d3[0], r0
 188:	01110e1b 	tsteq	r1, fp, lsl lr
 18c:	06100112 			; <UNDEFINED> instruction: 0x06100112
 190:	24020000 	strcs	r0, [r2], #-0
 194:	3e0b0b00 	vmlacc.f64	d0, d11, d0
 198:	000e030b 	andeq	r0, lr, fp, lsl #6
 19c:	012e0300 	teqeq	lr, r0, lsl #6
 1a0:	0e030c3f 	mcreq	12, 0, r0, cr3, cr15, {1}
 1a4:	0b3b0b3a 	bleq	ec2e94 <__bss_end+0xeba1fc>
 1a8:	01120111 	tsteq	r2, r1, lsl r1
 1ac:	42960640 	addsmi	r0, r6, #67108864	; 0x4000000
 1b0:	0013010c 	andseq	r0, r3, ip, lsl #2
 1b4:	00340400 	eorseq	r0, r4, r0, lsl #8
 1b8:	0b3a0803 	bleq	e821cc <__bss_end+0xe79534>
 1bc:	13490b3b 	movtne	r0, #39739	; 0x9b3b
 1c0:	00000a02 	andeq	r0, r0, r2, lsl #20
 1c4:	3f002e05 	svccc	0x00002e05
 1c8:	3a0e030c 	bcc	380e00 <__bss_end+0x378168>
 1cc:	110b3b0b 	tstne	fp, fp, lsl #22
 1d0:	40011201 	andmi	r1, r1, r1, lsl #4
 1d4:	0c429606 	mcrreq	6, 0, r9, r2, cr6
 1d8:	2e060000 	cdpcs	0, 0, cr0, cr6, cr0, {0}
 1dc:	030c3f01 	movweq	r3, #52993	; 0xcf01
 1e0:	3b0b3a0e 	blcc	2cea20 <__bss_end+0x2c5d88>
 1e4:	1201110b 	andne	r1, r1, #-1073741822	; 0xc0000002
 1e8:	96064001 	strls	r4, [r6], -r1
 1ec:	00000c42 	andeq	r0, r0, r2, asr #24
 1f0:	01110100 	tsteq	r1, r0, lsl #2
 1f4:	0b130e25 	bleq	4c3a90 <__bss_end+0x4badf8>
 1f8:	0e1b0e03 	cdpeq	14, 1, cr0, cr11, cr3, {0}
 1fc:	01120111 	tsteq	r2, r1, lsl r1
 200:	00000610 	andeq	r0, r0, r0, lsl r6
 204:	03001602 	movweq	r1, #1538	; 0x602
 208:	3b0b3a0e 	blcc	2cea48 <__bss_end+0x2c5db0>
 20c:	0013490b 	andseq	r4, r3, fp, lsl #18
 210:	000f0300 	andeq	r0, pc, r0, lsl #6
 214:	13490b0b 	movtne	r0, #39691	; 0x9b0b
 218:	15040000 	strne	r0, [r4, #-0]
 21c:	000c2700 	andeq	r2, ip, r0, lsl #14
 220:	01040500 	tsteq	r4, r0, lsl #10
 224:	0b0b0e03 	bleq	2c3a38 <__bss_end+0x2bada0>
 228:	0b3b0b3a 	bleq	ec2f18 <__bss_end+0xeba280>
 22c:	00001301 	andeq	r1, r0, r1, lsl #6
 230:	03002806 	movweq	r2, #2054	; 0x806
 234:	000d1c08 	andeq	r1, sp, r8, lsl #24
 238:	00280700 	eoreq	r0, r8, r0, lsl #14
 23c:	0d1c0e03 	ldceq	14, cr0, [ip, #-12]
 240:	13080000 	movwne	r0, #32768	; 0x8000
 244:	0b0e0301 	bleq	380e50 <__bss_end+0x3781b8>
 248:	3b0b3a0b 	blcc	2cea7c <__bss_end+0x2c5de4>
 24c:	0013010b 	andseq	r0, r3, fp, lsl #2
 250:	000d0900 	andeq	r0, sp, r0, lsl #18
 254:	0b3a0803 	bleq	e82268 <__bss_end+0xe795d0>
 258:	13490b3b 	movtne	r0, #39739	; 0x9b3b
 25c:	00000a38 	andeq	r0, r0, r8, lsr sl
 260:	03000d0a 	movweq	r0, #3338	; 0xd0a
 264:	3b0b3a0e 	blcc	2ceaa4 <__bss_end+0x2c5e0c>
 268:	3813490b 	ldmdacc	r3, {r0, r1, r3, r8, fp, lr}
 26c:	0b00000a 	bleq	29c <_start-0x7d64>
 270:	0b0b000f 	bleq	2c02b4 <__bss_end+0x2b761c>
 274:	240c0000 	strcs	r0, [ip], #-0
 278:	3e0b0b00 	vmlacc.f64	d0, d11, d0
 27c:	000e030b 	andeq	r0, lr, fp, lsl #6
 280:	00240d00 	eoreq	r0, r4, r0, lsl #26
 284:	0b3e0b0b 	bleq	f82eb8 <__bss_end+0xf7a220>
 288:	00000803 	andeq	r0, r0, r3, lsl #16
 28c:	3f002e0e 	svccc	0x00002e0e
 290:	3a0e030c 	bcc	380ec8 <__bss_end+0x378230>
 294:	110b3b0b 	tstne	fp, fp, lsl #22
 298:	40011201 	andmi	r1, r1, r1, lsl #4
 29c:	0c42970a 	mcrreq	7, 0, r9, r2, cr10
 2a0:	2e0f0000 	cdpcs	0, 0, cr0, cr15, cr0, {0}
 2a4:	030c3f00 	movweq	r3, #52992	; 0xcf00
 2a8:	3b0b3a0e 	blcc	2ceae8 <__bss_end+0x2c5e50>
 2ac:	1201110b 	andne	r1, r1, #-1073741822	; 0xc0000002
 2b0:	96064001 	strls	r4, [r6], -r1
 2b4:	00000c42 	andeq	r0, r0, r2, asr #24
 2b8:	3f012e10 	svccc	0x00012e10
 2bc:	3a0e030c 	bcc	380ef4 <__bss_end+0x37825c>
 2c0:	110b3b0b 	tstne	fp, fp, lsl #22
 2c4:	40011201 	andmi	r1, r1, r1, lsl #4
 2c8:	0c42960a 	mcrreq	6, 0, r9, r2, cr10
 2cc:	00001301 	andeq	r1, r0, r1, lsl #6
 2d0:	3f012e11 	svccc	0x00012e11
 2d4:	3a0e030c 	bcc	380f0c <__bss_end+0x378274>
 2d8:	490b3b0b 	stmdbmi	fp, {r0, r1, r3, r8, r9, fp, ip, sp}
 2dc:	000c3c13 	andeq	r3, ip, r3, lsl ip
 2e0:	00181200 	andseq	r1, r8, r0, lsl #4
 2e4:	2e130000 	cdpcs	0, 1, cr0, cr3, cr0, {0}
 2e8:	030c3f01 	movweq	r3, #52993	; 0xcf01
 2ec:	3b0b3a0e 	blcc	2ceb2c <__bss_end+0x2c5e94>
 2f0:	110c270b 	tstne	ip, fp, lsl #14
 2f4:	40011201 	andmi	r1, r1, r1, lsl #4
 2f8:	0c429706 	mcrreq	7, 0, r9, r2, cr6
 2fc:	00001301 	andeq	r1, r0, r1, lsl #6
 300:	03000514 	movweq	r0, #1300	; 0x514
 304:	3b0b3a08 	blcc	2ceb2c <__bss_end+0x2c5e94>
 308:	0213490b 	andseq	r4, r3, #180224	; 0x2c000
 30c:	1500000a 	strne	r0, [r0, #-10]
 310:	0e030005 	cdpeq	0, 0, cr0, cr3, cr5, {0}
 314:	0b3b0b3a 	bleq	ec3004 <__bss_end+0xeba36c>
 318:	0a021349 	beq	85044 <__bss_end+0x7c3ac>
 31c:	2e160000 	cdpcs	0, 1, cr0, cr6, cr0, {0}
 320:	030c3f01 	movweq	r3, #52993	; 0xcf01
 324:	3b0b3a0e 	blcc	2ceb64 <__bss_end+0x2c5ecc>
 328:	110c270b 	tstne	ip, fp, lsl #14
 32c:	40011201 	andmi	r1, r1, r1, lsl #4
 330:	0c429606 	mcrreq	6, 0, r9, r2, cr6
 334:	00001301 	andeq	r1, r0, r1, lsl #6
 338:	3f012e17 	svccc	0x00012e17
 33c:	3a0e030c 	bcc	380f74 <__bss_end+0x3782dc>
 340:	490b3b0b 	stmdbmi	fp, {r0, r1, r3, r8, r9, fp, ip, sp}
 344:	010c3c13 	tsteq	ip, r3, lsl ip
 348:	18000013 	stmdane	r0, {r0, r1, r4}
 34c:	0e030034 	mcreq	0, 0, r0, cr3, cr4, {1}
 350:	0b3b0b3a 	bleq	ec3040 <__bss_end+0xeba3a8>
 354:	0a021349 	beq	85080 <__bss_end+0x7c3e8>
 358:	34190000 	ldrcc	r0, [r9], #-0
 35c:	3a080300 	bcc	200f64 <__bss_end+0x1f82cc>
 360:	490b3b0b 	stmdbmi	fp, {r0, r1, r3, r8, r9, fp, ip, sp}
 364:	000a0213 	andeq	r0, sl, r3, lsl r2
 368:	010b1a00 	tsteq	fp, r0, lsl #20
 36c:	01120111 	tsteq	r2, r1, lsl r1
 370:	2e1b0000 	cdpcs	0, 1, cr0, cr11, cr0, {0}
 374:	030c3f00 	movweq	r3, #52992	; 0xcf00
 378:	3b0b3a0e 	blcc	2cebb8 <__bss_end+0x2c5f20>
 37c:	1201110b 	andne	r1, r1, #-1073741822	; 0xc0000002
 380:	960a4001 	strls	r4, [sl], -r1
 384:	00000c42 	andeq	r0, r0, r2, asr #24
 388:	3f012e1c 	svccc	0x00012e1c
 38c:	3a0e030c 	bcc	380fc4 <__bss_end+0x37832c>
 390:	11053b0b 	tstne	r5, fp, lsl #22
 394:	40011201 	andmi	r1, r1, r1, lsl #4
 398:	0c429606 	mcrreq	6, 0, r9, r2, cr6
 39c:	00001301 	andeq	r1, r0, r1, lsl #6
 3a0:	0300341d 	movweq	r3, #1053	; 0x41d
 3a4:	3b0b3a08 	blcc	2cebcc <__bss_end+0x2c5f34>
 3a8:	02134905 	andseq	r4, r3, #81920	; 0x14000
 3ac:	1e00000a 	cdpne	0, 0, cr0, cr0, cr10, {0}
 3b0:	0e030034 	mcreq	0, 0, r0, cr3, cr4, {1}
 3b4:	053b0b3a 	ldreq	r0, [fp, #-2874]!	; 0xb3a
 3b8:	0a021349 	beq	850e4 <__bss_end+0x7c44c>
 3bc:	341f0000 	ldrcc	r0, [pc], #-0	; 3c4 <_start-0x7c3c>
 3c0:	3a0e0300 	bcc	380fc8 <__bss_end+0x378330>
 3c4:	490b3b0b 	stmdbmi	fp, {r0, r1, r3, r8, r9, fp, ip, sp}
 3c8:	020c3f13 	andeq	r3, ip, #76	; 0x4c
 3cc:	0000000a 	andeq	r0, r0, sl
 3d0:	25011101 	strcs	r1, [r1, #-257]	; 0x101
 3d4:	030b130e 	movweq	r1, #45838	; 0xb30e
 3d8:	110e1b0e 	tstne	lr, lr, lsl #22
 3dc:	10011201 	andne	r1, r1, r1, lsl #4
 3e0:	02000006 	andeq	r0, r0, #6
 3e4:	0e030104 	adfeqs	f0, f3, f4
 3e8:	0b3a0b0b 	bleq	e8301c <__bss_end+0xe7a384>
 3ec:	13010b3b 	movwne	r0, #6971	; 0x1b3b
 3f0:	28030000 	stmdacs	r3, {}	; <UNPREDICTABLE>
 3f4:	1c0e0300 	stcne	3, cr0, [lr], {-0}
 3f8:	0400000d 	streq	r0, [r0], #-13
 3fc:	0b0b0024 	bleq	2c0494 <__bss_end+0x2b77fc>
 400:	0e030b3e 	vmoveq.16	d3[0], r0
 404:	24050000 	strcs	r0, [r5], #-0
 408:	3e0b0b00 	vmlacc.f64	d0, d11, d0
 40c:	0008030b 	andeq	r0, r8, fp, lsl #6
 410:	012e0600 	teqeq	lr, r0, lsl #12
 414:	0e030c3f 	mcreq	12, 0, r0, cr3, cr15, {1}
 418:	0b3b0b3a 	bleq	ec3108 <__bss_end+0xeba470>
 41c:	01120111 	tsteq	r2, r1, lsl r1
 420:	42960a40 	addsmi	r0, r6, #262144	; 0x40000
 424:	0013010c 	andseq	r0, r3, ip, lsl #2
 428:	00340700 	eorseq	r0, r4, r0, lsl #14
 42c:	0b3a0e03 	bleq	e83c40 <__bss_end+0xe7afa8>
 430:	13490b3b 	movtne	r0, #39739	; 0x9b3b
 434:	00000a02 	andeq	r0, r0, r2, lsl #20
 438:	11010b08 	tstne	r1, r8, lsl #22
 43c:	00011201 	andeq	r1, r1, r1, lsl #4
 440:	012e0900 	teqeq	lr, r0, lsl #18
 444:	0e030c3f 	mcreq	12, 0, r0, cr3, cr15, {1}
 448:	0b3b0b3a 	bleq	ec3138 <__bss_end+0xeba4a0>
 44c:	01110c27 	tsteq	r1, r7, lsr #24
 450:	0a400112 	beq	10008a0 <__bss_end+0xff7c08>
 454:	010c4296 			; <UNDEFINED> instruction: 0x010c4296
 458:	0a000013 	beq	4ac <_start-0x7b54>
 45c:	0e030005 	cdpeq	0, 0, cr0, cr3, cr5, {0}
 460:	0b3b0b3a 	bleq	ec3150 <__bss_end+0xeba4b8>
 464:	0a021349 	beq	85190 <__bss_end+0x7c4f8>
 468:	2e0b0000 	cdpcs	0, 0, cr0, cr11, cr0, {0}
 46c:	030c3f01 	movweq	r3, #52993	; 0xcf01
 470:	3b0b3a0e 	blcc	2cecb0 <__bss_end+0x2c6018>
 474:	110c270b 	tstne	ip, fp, lsl #14
 478:	40011201 	andmi	r1, r1, r1, lsl #4
 47c:	0c429606 	mcrreq	6, 0, r9, r2, cr6
 480:	00001301 	andeq	r1, r0, r1, lsl #6
 484:	3f002e0c 	svccc	0x00002e0c
 488:	3a0e030c 	bcc	3810c0 <__bss_end+0x378428>
 48c:	110b3b0b 	tstne	fp, fp, lsl #22
 490:	40011201 	andmi	r1, r1, r1, lsl #4
 494:	0c42960a 	mcrreq	6, 0, r9, r2, cr10
 498:	2e0d0000 	cdpcs	0, 0, cr0, cr13, cr0, {0}
 49c:	030c3f01 	movweq	r3, #52993	; 0xcf01
 4a0:	3b0b3a0e 	blcc	2cece0 <__bss_end+0x2c6048>
 4a4:	3c13490b 	ldccc	9, cr4, [r3], {11}
 4a8:	0e00000c 	cdpeq	0, 0, cr0, cr0, cr12, {0}
 4ac:	00000018 	andeq	r0, r0, r8, lsl r0
 4b0:	4900260f 	stmdbmi	r0, {r0, r1, r2, r3, r9, sl, sp}
 4b4:	10000013 	andne	r0, r0, r3, lsl r0
 4b8:	0c3f012e 	ldfeqs	f0, [pc], #-184	; 408 <_start-0x7bf8>
 4bc:	0b3a0e03 	bleq	e83cd0 <__bss_end+0xe7b038>
 4c0:	0c270b3b 	stceq	11, cr0, [r7], #-236	; 0xffffff14
 4c4:	01120111 	tsteq	r2, r1, lsl r1
 4c8:	42960640 	addsmi	r0, r6, #67108864	; 0x4000000
 4cc:	0000000c 	andeq	r0, r0, ip

Disassembly of section .debug_aranges:

00000000 <.debug_aranges>:
   0:	0000001c 	andeq	r0, r0, ip, lsl r0
   4:	00000002 	andeq	r0, r0, r2
   8:	00040000 	andeq	r0, r4, r0
   c:	00000000 	andeq	r0, r0, r0
  10:	00008000 	andeq	r8, r0, r0
  14:	000000d0 	ldrdeq	r0, [r0], -r0	; <UNPREDICTABLE>
	...
  20:	0000001c 	andeq	r0, r0, ip, lsl r0
  24:	00580002 	subseq	r0, r8, r2
  28:	00040000 	andeq	r0, r4, r0
  2c:	00000000 	andeq	r0, r0, r0
  30:	000080d0 	ldrdeq	r8, [r0], -r0
  34:	000000b0 	strheq	r0, [r0], -r0	; <UNPREDICTABLE>
	...
  40:	0000001c 	andeq	r0, r0, ip, lsl r0
  44:	011d0002 	tsteq	sp, r2
  48:	00040000 	andeq	r0, r4, r0
  4c:	00000000 	andeq	r0, r0, r0
  50:	00008180 	andeq	r8, r0, r0, lsl #3
  54:	00000138 	andeq	r0, r0, r8, lsr r1
	...
  60:	0000001c 	andeq	r0, r0, ip, lsl r0
  64:	027f0002 	rsbseq	r0, pc, #2
  68:	00040000 	andeq	r0, r4, r0
  6c:	00000000 	andeq	r0, r0, r0
  70:	000082b8 			; <UNDEFINED> instruction: 0x000082b8
  74:	0000013c 	andeq	r0, r0, ip, lsr r1
	...
  80:	0000001c 	andeq	r0, r0, ip, lsl r0
  84:	033b0002 	teqeq	fp, #2
  88:	00040000 	andeq	r0, r4, r0
  8c:	00000000 	andeq	r0, r0, r0
  90:	000083f4 	strdeq	r8, [r0], -r4
  94:	0000077c 	andeq	r0, r0, ip, ror r7
	...
  a0:	0000001c 	andeq	r0, r0, ip, lsl r0
  a4:	07680002 	strbeq	r0, [r8, -r2]!
  a8:	00040000 	andeq	r0, r4, r0
  ac:	00000000 	andeq	r0, r0, r0
  b0:	00008b70 	andeq	r8, r0, r0, ror fp
  b4:	00000108 	andeq	r0, r0, r8, lsl #2
	...

Disassembly of section .debug_loc:

00000000 <.debug_loc>:
   0:	00000000 	andeq	r0, r0, r0
   4:	00000004 	andeq	r0, r0, r4
   8:	007d0002 	rsbseq	r0, sp, r2
   c:	00000004 	andeq	r0, r0, r4
  10:	00000008 	andeq	r0, r0, r8
  14:	047d0002 	ldrbteq	r0, [sp], #-2
  18:	00000008 	andeq	r0, r0, r8
  1c:	00000050 	andeq	r0, r0, r0, asr r0
  20:	107d0002 	rsbsne	r0, sp, r2
	...
  2c:	00000050 	andeq	r0, r0, r0, asr r0
  30:	00000054 	andeq	r0, r0, r4, asr r0
  34:	007d0002 	rsbseq	r0, sp, r2
  38:	00000054 	andeq	r0, r0, r4, asr r0
  3c:	0000006c 	andeq	r0, r0, ip, rrx
  40:	087d0002 	ldmdaeq	sp!, {r1}^
	...
  4c:	0000006c 	andeq	r0, r0, ip, rrx
  50:	00000070 	andeq	r0, r0, r0, ror r0
  54:	007d0002 	rsbseq	r0, sp, r2
  58:	00000070 	andeq	r0, r0, r0, ror r0
  5c:	000000b0 	strheq	r0, [r0], -r0	; <UNPREDICTABLE>
  60:	087d0002 	ldmdaeq	sp!, {r1}^
	...
  70:	00000004 	andeq	r0, r0, r4
  74:	007d0002 	rsbseq	r0, sp, r2
  78:	00000004 	andeq	r0, r0, r4
  7c:	00000008 	andeq	r0, r0, r8
  80:	087d0002 	ldmdaeq	sp!, {r1}^
  84:	00000008 	andeq	r0, r0, r8
  88:	000000b4 	strheq	r0, [r0], -r4
  8c:	107d0002 	rsbsne	r0, sp, r2
	...
  98:	000000b4 	strheq	r0, [r0], -r4
  9c:	000000b8 	strheq	r0, [r0], -r8
  a0:	007d0002 	rsbseq	r0, sp, r2
  a4:	000000b8 	strheq	r0, [r0], -r8
  a8:	000000bc 	strheq	r0, [r0], -ip
  ac:	047d0002 	ldrbteq	r0, [sp], #-2
  b0:	000000bc 	strheq	r0, [r0], -ip
  b4:	000000fc 	strdeq	r0, [r0], -ip
  b8:	107d0002 	rsbsne	r0, sp, r2
	...
  c4:	000000fc 	strdeq	r0, [r0], -ip
  c8:	00000100 	andeq	r0, r0, r0, lsl #2
  cc:	007d0002 	rsbseq	r0, sp, r2
  d0:	00000100 	andeq	r0, r0, r0, lsl #2
  d4:	00000138 	andeq	r0, r0, r8, lsr r1
  d8:	087d0002 	ldmdaeq	sp!, {r1}^
	...
  e8:	00000004 	andeq	r0, r0, r4
  ec:	007d0002 	rsbseq	r0, sp, r2
  f0:	00000004 	andeq	r0, r0, r4
  f4:	00000008 	andeq	r0, r0, r8
  f8:	047d0002 	ldrbteq	r0, [sp], #-2
  fc:	00000008 	andeq	r0, r0, r8
 100:	0000004c 	andeq	r0, r0, ip, asr #32
 104:	107d0002 	rsbsne	r0, sp, r2
	...
 110:	0000004c 	andeq	r0, r0, ip, asr #32
 114:	00000050 	andeq	r0, r0, r0, asr r0
 118:	007d0002 	rsbseq	r0, sp, r2
 11c:	00000050 	andeq	r0, r0, r0, asr r0
 120:	00000064 	andeq	r0, r0, r4, rrx
 124:	087d0002 	ldmdaeq	sp!, {r1}^
	...
 130:	00000064 	andeq	r0, r0, r4, rrx
 134:	00000068 	andeq	r0, r0, r8, rrx
 138:	007d0002 	rsbseq	r0, sp, r2
 13c:	00000068 	andeq	r0, r0, r8, rrx
 140:	0000007c 	andeq	r0, r0, ip, ror r0
 144:	087d0002 	ldmdaeq	sp!, {r1}^
	...
 150:	0000007c 	andeq	r0, r0, ip, ror r0
 154:	00000080 	andeq	r0, r0, r0, lsl #1
 158:	007d0002 	rsbseq	r0, sp, r2
 15c:	00000080 	andeq	r0, r0, r0, lsl #1
 160:	00000084 	andeq	r0, r0, r4, lsl #1
 164:	047d0002 	ldrbteq	r0, [sp], #-2
 168:	00000084 	andeq	r0, r0, r4, lsl #1
 16c:	0000013c 	andeq	r0, r0, ip, lsr r1
 170:	107d0002 	rsbsne	r0, sp, r2
	...
 17c:	00000024 	andeq	r0, r0, r4, lsr #32
 180:	00000028 	andeq	r0, r0, r8, lsr #32
 184:	007d0002 	rsbseq	r0, sp, r2
 188:	00000028 	andeq	r0, r0, r8, lsr #32
 18c:	000000a0 	andeq	r0, r0, r0, lsr #1
 190:	087d0002 	ldmdaeq	sp!, {r1}^
	...
 19c:	000000a8 	andeq	r0, r0, r8, lsr #1
 1a0:	000000ac 	andeq	r0, r0, ip, lsr #1
 1a4:	007d0002 	rsbseq	r0, sp, r2
 1a8:	000000ac 	andeq	r0, r0, ip, lsr #1
 1ac:	00000140 	andeq	r0, r0, r0, asr #2
 1b0:	107d0002 	rsbsne	r0, sp, r2
	...
 1bc:	00000140 	andeq	r0, r0, r0, asr #2
 1c0:	00000144 	andeq	r0, r0, r4, asr #2
 1c4:	007d0002 	rsbseq	r0, sp, r2
 1c8:	00000144 	andeq	r0, r0, r4, asr #2
 1cc:	00000160 	andeq	r0, r0, r0, ror #2
 1d0:	087d0002 	ldmdaeq	sp!, {r1}^
	...
 1dc:	00000160 	andeq	r0, r0, r0, ror #2
 1e0:	00000164 	andeq	r0, r0, r4, ror #2
 1e4:	007d0002 	rsbseq	r0, sp, r2
 1e8:	00000164 	andeq	r0, r0, r4, ror #2
 1ec:	00000168 	andeq	r0, r0, r8, ror #2
 1f0:	047d0002 	ldrbteq	r0, [sp], #-2
 1f4:	00000168 	andeq	r0, r0, r8, ror #2
 1f8:	00000210 	andeq	r0, r0, r0, lsl r2
 1fc:	187d0002 	ldmdane	sp!, {r1}^
	...
 208:	00000210 	andeq	r0, r0, r0, lsl r2
 20c:	00000214 	andeq	r0, r0, r4, lsl r2
 210:	007d0002 	rsbseq	r0, sp, r2
 214:	00000214 	andeq	r0, r0, r4, lsl r2
 218:	00000218 	andeq	r0, r0, r8, lsl r2
 21c:	047d0002 	ldrbteq	r0, [sp], #-2
 220:	00000218 	andeq	r0, r0, r8, lsl r2
 224:	00000310 	andeq	r0, r0, r0, lsl r3
 228:	307d0002 	rsbscc	r0, sp, r2
	...
 234:	00000328 	andeq	r0, r0, r8, lsr #6
 238:	0000032c 	andeq	r0, r0, ip, lsr #6
 23c:	007d0002 	rsbseq	r0, sp, r2
 240:	0000032c 	andeq	r0, r0, ip, lsr #6
 244:	00000400 	andeq	r0, r0, r0, lsl #8
 248:	087d0002 	ldmdaeq	sp!, {r1}^
	...
 254:	00000400 	andeq	r0, r0, r0, lsl #8
 258:	00000404 	andeq	r0, r0, r4, lsl #8
 25c:	007d0002 	rsbseq	r0, sp, r2
 260:	00000404 	andeq	r0, r0, r4, lsl #8
 264:	000004ec 	andeq	r0, r0, ip, ror #9
 268:	087d0002 	ldmdaeq	sp!, {r1}^
	...
 274:	000004ec 	andeq	r0, r0, ip, ror #9
 278:	000004f0 	strdeq	r0, [r0], -r0	; <UNPREDICTABLE>
 27c:	007d0002 	rsbseq	r0, sp, r2
 280:	000004f0 	strdeq	r0, [r0], -r0	; <UNPREDICTABLE>
 284:	000004f8 	strdeq	r0, [r0], -r8
 288:	087d0002 	ldmdaeq	sp!, {r1}^
	...
 294:	000004f8 	strdeq	r0, [r0], -r8
 298:	000004fc 	strdeq	r0, [r0], -ip
 29c:	007d0002 	rsbseq	r0, sp, r2
 2a0:	000004fc 	strdeq	r0, [r0], -ip
 2a4:	00000500 	andeq	r0, r0, r0, lsl #10
 2a8:	047d0002 	ldrbteq	r0, [sp], #-2
 2ac:	00000500 	andeq	r0, r0, r0, lsl #10
 2b0:	00000534 	andeq	r0, r0, r4, lsr r5
 2b4:	107d0002 	rsbsne	r0, sp, r2
	...
 2c0:	000006c8 	andeq	r0, r0, r8, asr #13
 2c4:	000006cc 	andeq	r0, r0, ip, asr #13
 2c8:	007d0002 	rsbseq	r0, sp, r2
 2cc:	000006cc 	andeq	r0, r0, ip, asr #13
 2d0:	000006d0 	ldrdeq	r0, [r0], -r0	; <UNPREDICTABLE>
 2d4:	047d0002 	ldrbteq	r0, [sp], #-2
 2d8:	000006d0 	ldrdeq	r0, [r0], -r0	; <UNPREDICTABLE>
 2dc:	0000077c 	andeq	r0, r0, ip, ror r7
 2e0:	107d0002 	rsbsne	r0, sp, r2
	...
 2ec:	00000090 	muleq	r0, r0, r0
 2f0:	00000094 	muleq	r0, r4, r0
 2f4:	007d0002 	rsbseq	r0, sp, r2
 2f8:	00000094 	muleq	r0, r4, r0
 2fc:	00000098 	muleq	r0, r8, r0
 300:	047d0002 	ldrbteq	r0, [sp], #-2
 304:	00000098 	muleq	r0, r8, r0
 308:	000000ac 	andeq	r0, r0, ip, lsr #1
 30c:	107d0002 	rsbsne	r0, sp, r2
	...
 318:	000000ec 	andeq	r0, r0, ip, ror #1
 31c:	000000f0 	strdeq	r0, [r0], -r0	; <UNPREDICTABLE>
 320:	007d0002 	rsbseq	r0, sp, r2
 324:	000000f0 	strdeq	r0, [r0], -r0	; <UNPREDICTABLE>
 328:	000000f4 	strdeq	r0, [r0], -r4
 32c:	047d0002 	ldrbteq	r0, [sp], #-2
 330:	000000f4 	strdeq	r0, [r0], -r4
 334:	00000108 	andeq	r0, r0, r8, lsl #2
 338:	107d0002 	rsbsne	r0, sp, r2
	...

Disassembly of section .debug_str:

00000000 <.debug_str>:
   0:	69616d6b 	stmdbvs	r1!, {r0, r1, r3, r5, r6, r8, sl, fp, sp, lr}^
   4:	4157006e 	cmpmi	r7, lr, rrx
   8:	47005449 	strmi	r5, [r0, -r9, asr #8]
   c:	4320554e 	teqmi	r0, #327155712	; 0x13800000
  10:	372e3420 	strcc	r3, [lr, -r0, lsr #8]!
  14:	5300312e 	movwpl	r3, #302	; 0x12e
  18:	41435359 	cmpmi	r3, r9, asr r3
  1c:	6c004c4c 	stcvs	12, cr4, [r0], {76}	; 0x4c
  20:	20676e6f 	rsbcs	r6, r7, pc, ror #28
  24:	69736e75 	ldmdbvs	r3!, {r0, r2, r4, r5, r6, r9, sl, fp, sp, lr}^
  28:	64656e67 	strbtvs	r6, [r5], #-3687	; 0xe67
  2c:	746e6920 	strbtvc	r6, [lr], #-2336	; 0x920
  30:	74706300 	ldrbtvc	r6, [r0], #-768	; 0x300
  34:	70630041 	rsbvc	r0, r3, r1, asr #32
  38:	66004274 			; <UNDEFINED> instruction: 0x66004274
  3c:	42636e75 	rsbmi	r6, r3, #1872	; 0x750
  40:	6e756600 	cdpvs	6, 7, cr6, cr5, cr0, {0}
  44:	52004163 	andpl	r4, r0, #-1073741800	; 0xc0000018
  48:	4f4f4245 	svcmi	0x004f4245
  4c:	682f0054 	stmdavs	pc!, {r2, r4, r6}	; <UNPREDICTABLE>
  50:	2f656d6f 	svccs	0x00656d6f
  54:	6f68746d 	svcvs	0x0068746d
  58:	74746572 	ldrbtvc	r6, [r4], #-1394	; 0x572
  5c:	442f6e6f 	strtmi	r6, [pc], #-3695	; 64 <_start-0x7f9c>
  60:	746b7365 	strbtvc	r7, [fp], #-869	; 0x365
  64:	732f706f 	teqvc	pc, #111	; 0x6f
  68:	682f6165 	stmdavs	pc!, {r0, r2, r5, r6, r8, sp, lr}	; <UNPREDICTABLE>
  6c:	6d617865 	stclvs	8, cr7, [r1, #-404]!	; 0xfffffe6c
  70:	6f2d7861 	svcvs	0x002d7861
  74:	656b0073 	strbvs	r0, [fp, #-115]!	; 0x73
  78:	6c656e72 	stclvs	14, cr6, [r5], #-456	; 0xfffffe38
  7c:	7000632e 	andvc	r6, r0, lr, lsr #6
  80:	6c417968 	mcrrvs	9, 6, r7, r1, cr8
  84:	2e636f6c 	cdpcs	15, 6, cr6, cr3, cr12, {3}
  88:	72700063 	rsbsvc	r0, r0, #99	; 0x63
  8c:	66007665 	strvs	r7, [r0], -r5, ror #12
  90:	6c656572 	cfstr64vs	mvdx6, [r5], #-456	; 0xfffffe38
  94:	00747369 	rsbseq	r7, r4, r9, ror #6
  98:	41796870 	cmnmi	r9, r0, ror r8
  9c:	636f6c6c 	cmnvs	pc, #27648	; 0x6c00
  a0:	6572665f 	ldrbvs	r6, [r2, #-1631]!	; 0x65f
  a4:	65680065 	strbvs	r0, [r8, #-101]!	; 0x65
  a8:	735f7061 	cmpvc	pc, #97	; 0x61
  ac:	74726174 	ldrbtvc	r6, [r2], #-372	; 0x174
  b0:	78656e00 	stmdavc	r5!, {r9, sl, fp, sp, lr}^
  b4:	68700074 	ldmdavs	r0!, {r2, r4, r5, r6}^
  b8:	6c6c4179 	stfvse	f4, [ip], #-484	; 0xfffffe1c
  bc:	615f636f 	cmpvs	pc, pc, ror #6
  c0:	636f6c6c 	cmnvs	pc, #27648	; 0x6c00
  c4:	79687000 	stmdbvc	r8!, {ip, sp, lr}^
  c8:	6f6c6c41 	svcvs	0x006c6c41
  cc:	6e695f63 	cdpvs	15, 6, cr5, cr9, cr3, {3}
  d0:	68007469 	stmdavs	r0, {r0, r3, r5, r6, sl, ip, sp, lr}
  d4:	5f706165 	svcpl	0x00706165
  d8:	696d696c 	stmdbvs	sp!, {r2, r3, r5, r6, r8, fp, sp, lr}^
  dc:	65680074 	strbvs	r0, [r8, #-116]!	; 0x74
  e0:	735f7061 	cmpvc	pc, #97	; 0x61
  e4:	00657a69 	rsbeq	r7, r5, r9, ror #20
  e8:	69736e75 	ldmdbvs	r3!, {r0, r2, r4, r5, r6, r9, sl, fp, sp, lr}^
  ec:	64656e67 	strbtvs	r6, [r5], #-3687	; 0xe67
  f0:	61686320 	cmnvs	r8, r0, lsr #6
  f4:	6e690072 	mcrvs	0, 3, r0, cr9, cr2, {3}
  f8:	685f7469 	ldmdavs	pc, {r0, r3, r5, r6, sl, ip, sp, lr}^	; <UNPREDICTABLE>
  fc:	77680077 			; <UNDEFINED> instruction: 0x77680077
 100:	6c00632e 	stcvs	3, cr6, [r0], {46}	; 0x2e
 104:	6f5f6465 	svcvs	0x005f6465
 108:	6573006e 	ldrbvs	r0, [r3, #-110]!	; 0x6e
 10c:	69745f74 	ldmdbvs	r4!, {r2, r4, r5, r6, r8, r9, sl, fp, ip, lr}^
 110:	615f6b63 	cmpvs	pc, r3, ror #22
 114:	655f646e 	ldrbvs	r6, [pc, #-1134]	; fffffcae <__bss_end+0xffff7016>
 118:	6c62616e 	stfvse	f6, [r2], #-440	; 0xfffffe48
 11c:	69745f65 	ldmdbvs	r4!, {r0, r2, r5, r6, r8, r9, sl, fp, ip, lr}^
 120:	0072656d 	rsbseq	r6, r2, sp, ror #10
 124:	726f6873 	rsbvc	r6, pc, #7536640	; 0x730000
 128:	6e752074 	mrcvs	0, 3, r2, cr5, cr4, {3}
 12c:	6e676973 	mcrvs	9, 3, r6, cr7, cr3, {3}
 130:	69206465 	stmdbvs	r0!, {r0, r2, r5, r6, sl, sp, lr}
 134:	6c00746e 	cfstrsvs	mvf7, [r0], {110}	; 0x6e
 138:	6f5f6465 	svcvs	0x005f6465
 13c:	70006666 	andvc	r6, r0, r6, ror #12
 140:	006f6972 	rsbeq	r6, pc, r2, ror r9	; <UNPREDICTABLE>
 144:	61745370 	cmnvs	r4, r0, ror r3
 148:	73006574 	movwvc	r6, #1396	; 0x574
 14c:	65746174 	ldrbvs	r6, [r4, #-372]!	; 0x174
 150:	49415700 	stmdbmi	r1, {r8, r9, sl, ip, lr}^
 154:	474e4954 	smlsldmi	r4, lr, r4, r9
 158:	68637300 	stmdavs	r3!, {r8, r9, ip, sp, lr}^
 15c:	632e6465 	teqvs	lr, #1694498816	; 0x65000000
 160:	61747300 	cmnvs	r4, r0, lsl #6
 164:	735f7472 	cmpvc	pc, #1912602624	; 0x72000000
 168:	64656863 	strbtvs	r6, [r5], #-2147	; 0x863
 16c:	69617700 	stmdbvs	r1!, {r8, r9, sl, ip, sp, lr}^
 170:	756f4374 	strbvc	r4, [pc, #-884]!	; fffffe04 <__bss_end+0xffff716c>
 174:	7265746e 	rsbvc	r7, r5, #1845493760	; 0x6e000000
 178:	67696800 	strbvs	r6, [r9, -r0, lsl #16]!
 17c:	74736568 	ldrbtvc	r6, [r3], #-1384	; 0x568
 180:	6f697250 	svcvs	0x00697250
 184:	62637000 	rsbvs	r7, r3, #0
 188:	7300735f 	movwvc	r7, #863	; 0x35f
 18c:	64656863 	strbtvs	r6, [r5], #-2147	; 0x863
 190:	6978655f 	ldmdbvs	r8!, {r0, r1, r2, r3, r4, r6, r8, sl, sp, lr}^
 194:	69680074 	stmdbvs	r8!, {r2, r4, r5, r6}^
 198:	73656867 	cmnvc	r5, #6750208	; 0x670000
 19c:	72705f74 	rsbsvc	r5, r0, #464	; 0x1d0
 1a0:	69726f69 	ldmdbvs	r2!, {r0, r3, r5, r6, r8, r9, sl, fp, sp, lr}^
 1a4:	65007974 	strvs	r7, [r0, #-2420]	; 0x974
 1a8:	7463656c 	strbtvc	r6, [r3], #-1388	; 0x56c
 1ac:	7469775f 	strbtvc	r7, [r9], #-1887	; 0x75f
 1b0:	69665f68 	stmdbvs	r6!, {r3, r5, r6, r8, r9, sl, fp, ip, lr}^
 1b4:	5f646578 	svcpl	0x00646578
 1b8:	6f697270 	svcvs	0x00697270
 1bc:	79746972 	ldmdbvc	r4!, {r1, r4, r5, r6, r8, fp, sp, lr}^
 1c0:	77656e00 	strbvc	r6, [r5, -r0, lsl #28]!
 1c4:	63617453 	cmnvs	r1, #1392508928	; 0x53000000
 1c8:	6c65006b 	stclvs	0, cr0, [r5], #-428	; 0xfffffe54
 1cc:	00746365 	rsbseq	r6, r4, r5, ror #6
 1d0:	657a6973 	ldrbvs	r6, [sl, #-2419]!	; 0x973
 1d4:	00626350 	rsbeq	r6, r2, r0, asr r3
 1d8:	5077656e 	rsbspl	r6, r7, lr, ror #10
 1dc:	61006263 	tstvs	r0, r3, ror #4
 1e0:	735f6772 	cmpvc	pc, #29884416	; 0x1c80000
 1e4:	51626e00 	cmnpl	r2, r0, lsl #28
 1e8:	746e6175 	strbtvc	r6, [lr], #-373	; 0x175
 1ec:	63006d75 	movwvs	r6, #3445	; 0xd75
 1f0:	735f7874 	cmpvc	pc, #7602176	; 0x740000
 1f4:	63746977 	cmnvs	r4, #1949696	; 0x1dc000
 1f8:	72665f68 	rsbvc	r5, r6, #416	; 0x1a0
 1fc:	695f6d6f 	ldmdbvs	pc, {r0, r1, r2, r3, r5, r6, r8, sl, fp, sp, lr}^	; <UNPREDICTABLE>
 200:	63007172 	movwvs	r7, #370	; 0x172
 204:	6b636f6c 	blvs	18dbfbc <__bss_end+0x18d3324>
 208:	6b636954 	blvs	18da760 <__bss_end+0x18d1ac8>
 20c:	74730073 	ldrbtvc	r0, [r3], #-115	; 0x73
 210:	5f747261 	svcpl	0x00747261
 214:	72727563 	rsbsvc	r7, r2, #415236096	; 0x18c00000
 218:	5f746e65 	svcpl	0x00746e65
 21c:	636f7270 	cmnvs	pc, #7
 220:	00737365 	rsbseq	r7, r3, r5, ror #6
 224:	74696e69 	strbtvc	r6, [r9], #-3689	; 0xe69
 228:	6863735f 	stmdavs	r3!, {r0, r1, r2, r3, r4, r6, r8, r9, ip, sp, lr}^
 22c:	52006465 	andpl	r6, r0, #1694498816	; 0x65000000
 230:	59444145 	stmdbpl	r4, {r0, r2, r6, r8, lr}^
 234:	61747300 	cmnvs	r4, r0, lsl #6
 238:	735f6b63 	cmpvc	pc, #101376	; 0x18c00
 23c:	00657a69 	rsbeq	r7, r5, r9, ror #20
 240:	6d726574 	cfldr64vs	mvdx6, [r2, #-464]!	; 0xfffffe30
 244:	74616e69 	strbtvc	r6, [r1], #-3689	; 0xe69
 248:	72705f65 	rsbsvc	r5, r0, #404	; 0x194
 24c:	7365636f 	cmnvc	r5, #-1140850687	; 0xbc000001
 250:	69660073 	stmdbvs	r6!, {r0, r1, r4, r5, r6}^
 254:	5f747372 	svcpl	0x00747372
 258:	636f7270 	cmnvs	pc, #7
 25c:	00737365 	rsbseq	r7, r3, r5, ror #6
 260:	74696e69 	strbtvc	r6, [r9], #-3689	; 0xe69
 264:	6f72705f 	svcvs	0x0072705f
 268:	73736563 	cmnvc	r3, #415236096	; 0x18c00000
 26c:	78746300 	ldmdavc	r4!, {r8, r9, sp, lr}^
 270:	6977735f 	ldmdbvs	r7!, {r0, r1, r2, r3, r4, r6, r8, r9, ip, sp, lr}^
 274:	00686374 	rsbeq	r6, r8, r4, ror r3
 278:	73677261 	cmnvc	r7, #268435462	; 0x10000006
 27c:	696e6900 	stmdbvs	lr!, {r8, fp, sp, lr}^
 280:	63705f74 	cmnvs	r0, #464	; 0x1d0
 284:	72630062 	rsbvc	r0, r3, #98	; 0x62
 288:	65746165 	ldrbvs	r6, [r4, #-357]!	; 0x165
 28c:	6f72705f 	svcvs	0x0072705f
 290:	73736563 	cmnvc	r3, #415236096	; 0x18c00000
 294:	6e756600 	cdpvs	6, 7, cr6, cr5, cr0, {0}
 298:	00745f63 	rsbseq	r5, r4, r3, ror #30
 29c:	74696177 	strbtvc	r6, [r9], #-375	; 0x177
 2a0:	53646e41 	cmnpl	r4, #1040	; 0x410
 2a4:	63746977 	cmnvs	r4, #1949696	; 0x1dc000
 2a8:	74630068 	strbtvc	r0, [r3], #-104	; 0x68
 2ac:	77735f78 			; <UNDEFINED> instruction: 0x77735f78
 2b0:	68637469 	stmdavs	r3!, {r0, r3, r5, r6, sl, ip, sp, lr}^
 2b4:	6f72665f 	svcvs	0x0072665f
 2b8:	79735f6d 	ldmdbvc	r3!, {r0, r2, r3, r5, r6, r8, r9, sl, fp, ip, lr}^
 2bc:	6c616373 	stclvs	3, cr6, [r1], #-460	; 0xfffffe34
 2c0:	6173006c 	cmnvs	r3, ip, rrx
 2c4:	655f6576 	ldrbvs	r6, [pc, #-1398]	; fffffd56 <__bss_end+0xffff70be>
 2c8:	7463656c 	strbtvc	r6, [r3], #-1388	; 0x56c
 2cc:	7365725f 	cmnvc	r5, #-268435451	; 0xf0000005
 2d0:	65726f74 	ldrbvs	r6, [r2, #-3956]!	; 0xf74
 2d4:	4e555200 	cdpmi	2, 5, cr5, cr5, cr0, {0}
 2d8:	474e494e 	strbmi	r4, [lr, -lr, asr #18]
 2dc:	52455400 	subpl	r5, r5, #0
 2e0:	414e494d 	cmpmi	lr, sp, asr #18
 2e4:	00444554 	subeq	r4, r4, r4, asr r5
 2e8:	63656c65 	cmnvs	r5, #25856	; 0x6500
 2ec:	69775f74 	ldmdbvs	r7!, {r2, r4, r5, r6, r8, r9, sl, fp, ip, lr}^
 2f0:	775f6874 			; <UNDEFINED> instruction: 0x775f6874
 2f4:	00746961 	rsbseq	r6, r4, r1, ror #18
 2f8:	636e7566 	cmnvs	lr, #427819008	; 0x19800000
 2fc:	6e6f6974 	mcrvs	9, 3, r6, cr15, cr4, {3}
 300:	5f4d5000 	svcpl	0x004d5000
 304:	43545352 	cmpmi	r4, #1207959553	; 0x48000001
 308:	73797300 	cmnvc	r9, #0
 30c:	6265725f 	rsbvs	r7, r5, #-268435451	; 0xf0000005
 310:	00746f6f 	rsbseq	r6, r4, pc, ror #30
 314:	7551626e 	ldrbvc	r6, [r1, #-622]	; 0x26e
 318:	75746e61 	ldrbvc	r6, [r4, #-3681]!	; 0xe61
 31c:	5000736d 	andpl	r7, r0, sp, ror #6
 320:	53525f4d 	cmppl	r2, #308	; 0x134
 324:	575f4354 			; <UNDEFINED> instruction: 0x575f4354
 328:	47464352 	smlsldmi	r4, r6, r2, r3
 32c:	4c55465f 	mrrcmi	6, 5, r4, r5, cr15
 330:	45525f4c 	ldrbmi	r5, [r2, #-3916]	; 0xf4c
 334:	00544553 	subseq	r4, r4, r3, asr r5
 338:	575f4d50 			; <UNDEFINED> instruction: 0x575f4d50
 33c:	00474f44 	subeq	r4, r7, r4, asr #30
 340:	79536f64 	ldmdbvc	r3, {r2, r5, r6, r8, r9, sl, fp, sp, lr}^
 344:	6c614373 	stclvs	3, cr4, [r1], #-460	; 0xfffffe34
 348:	6265526c 	rsbvs	r5, r5, #-1073741818	; 0xc0000006
 34c:	00746f6f 	rsbseq	r6, r4, pc, ror #30
 350:	79536f64 	ldmdbvc	r3, {r2, r5, r6, r8, r9, sl, fp, sp, lr}^
 354:	6c614373 	stclvs	3, cr4, [r1], #-460	; 0xfffffe34
 358:	6961576c 	stmdbvs	r1!, {r2, r3, r5, r6, r8, r9, sl, ip, lr}^
 35c:	55500074 	ldrbpl	r0, [r0, #-116]	; 0x74
 360:	00323354 	eorseq	r3, r2, r4, asr r3
 364:	505f4d50 	subspl	r4, pc, r0, asr sp	; <UNPREDICTABLE>
 368:	57535341 	ldrbpl	r5, [r3, -r1, asr #6]
 36c:	0044524f 	subeq	r5, r4, pc, asr #4
 370:	79536f64 	ldmdbvc	r3, {r2, r5, r6, r8, r9, sl, fp, sp, lr}^
 374:	6c614373 	stclvs	3, cr4, [r1], #-460	; 0xfffffe34
 378:	5753006c 	ldrbpl	r0, [r3, -ip, rrx]
 37c:	6e614849 	cdpvs	8, 6, cr4, cr1, cr9, {2}
 380:	72656c64 	rsbvc	r6, r5, #25600	; 0x6400
 384:	646e6900 	strbtvs	r6, [lr], #-2304	; 0x900
 388:	73007865 	movwvc	r7, #2149	; 0x865
 38c:	775f7379 			; <UNDEFINED> instruction: 0x775f7379
 390:	00746961 	rsbseq	r6, r4, r1, ror #18
 394:	63737973 	cmnvs	r3, #1884160	; 0x1cc000
 398:	2e6c6c61 	cdpcs	12, 6, cr6, cr12, cr1, {3}
 39c:	61700063 	cmnvs	r0, r3, rrx
 3a0:	006d6172 	rsbeq	r6, sp, r2, ror r1

Disassembly of section .debug_frame:

00000000 <.debug_frame>:
   0:	0000000c 	andeq	r0, r0, ip
   4:	ffffffff 			; <UNDEFINED> instruction: 0xffffffff
   8:	7c020001 	stcvc	0, cr0, [r2], {1}
   c:	000d0c0e 	andeq	r0, sp, lr, lsl #24
  10:	00000014 	andeq	r0, r0, r4, lsl r0
  14:	00000000 	andeq	r0, r0, r0
  18:	000080d0 	ldrdeq	r8, [r0], -r0
  1c:	00000050 	andeq	r0, r0, r0, asr r0
  20:	8e040e42 	cdphi	14, 0, cr0, cr4, cr2, {2}
  24:	100e4201 	andne	r4, lr, r1, lsl #4
  28:	00000010 	andeq	r0, r0, r0, lsl r0
  2c:	00000000 	andeq	r0, r0, r0
  30:	00008120 	andeq	r8, r0, r0, lsr #2
  34:	0000001c 	andeq	r0, r0, ip, lsl r0
  38:	00080e42 	andeq	r0, r8, r2, asr #28
  3c:	00000014 	andeq	r0, r0, r4, lsl r0
  40:	00000000 	andeq	r0, r0, r0
  44:	0000813c 	andeq	r8, r0, ip, lsr r1
  48:	00000044 	andeq	r0, r0, r4, asr #32
  4c:	83080e42 	movwhi	r0, #36418	; 0x8e42
  50:	00018e02 	andeq	r8, r1, r2, lsl #28
  54:	0000000c 	andeq	r0, r0, ip
  58:	ffffffff 			; <UNDEFINED> instruction: 0xffffffff
  5c:	7c020001 	stcvc	0, cr0, [r2], {1}
  60:	000d0c0e 	andeq	r0, sp, lr, lsl #24
  64:	00000018 	andeq	r0, r0, r8, lsl r0
  68:	00000054 	andeq	r0, r0, r4, asr r0
  6c:	00008180 	andeq	r8, r0, r0, lsl #3
  70:	000000b4 	strheq	r0, [r0], -r4
  74:	84080e42 	strhi	r0, [r8], #-3650	; 0xe42
  78:	42018502 	andmi	r8, r1, #8388608	; 0x800000
  7c:	0000100e 	andeq	r1, r0, lr
  80:	00000014 	andeq	r0, r0, r4, lsl r0
  84:	00000054 	andeq	r0, r0, r4, asr r0
  88:	00008234 	andeq	r8, r0, r4, lsr r2
  8c:	00000048 	andeq	r0, r0, r8, asr #32
  90:	84040e42 	strhi	r0, [r4], #-3650	; 0xe42
  94:	100e4201 	andne	r4, lr, r1, lsl #4
  98:	00000010 	andeq	r0, r0, r0, lsl r0
  9c:	00000054 	andeq	r0, r0, r4, asr r0
  a0:	0000827c 	andeq	r8, r0, ip, ror r2
  a4:	0000003c 	andeq	r0, r0, ip, lsr r0
  a8:	00080e42 	andeq	r0, r8, r2, asr #28
  ac:	0000000c 	andeq	r0, r0, ip
  b0:	ffffffff 			; <UNDEFINED> instruction: 0xffffffff
  b4:	7c020001 	stcvc	0, cr0, [r2], {1}
  b8:	000d0c0e 	andeq	r0, sp, lr, lsl #24
  bc:	00000014 	andeq	r0, r0, r4, lsl r0
  c0:	000000ac 	andeq	r0, r0, ip, lsr #1
  c4:	000082b8 			; <UNDEFINED> instruction: 0x000082b8
  c8:	0000004c 	andeq	r0, r0, ip, asr #32
  cc:	8e040e42 	cdphi	14, 0, cr0, cr4, cr2, {2}
  d0:	100e4201 	andne	r4, lr, r1, lsl #4
  d4:	00000014 	andeq	r0, r0, r4, lsl r0
  d8:	000000ac 	andeq	r0, r0, ip, lsr #1
  dc:	00008304 	andeq	r8, r0, r4, lsl #6
  e0:	00000018 	andeq	r0, r0, r8, lsl r0
  e4:	83080e42 	movwhi	r0, #36418	; 0x8e42
  e8:	00018e02 	andeq	r8, r1, r2, lsl #28
  ec:	00000014 	andeq	r0, r0, r4, lsl r0
  f0:	000000ac 	andeq	r0, r0, ip, lsr #1
  f4:	0000831c 	andeq	r8, r0, ip, lsl r3
  f8:	00000018 	andeq	r0, r0, r8, lsl r0
  fc:	83080e42 	movwhi	r0, #36418	; 0x8e42
 100:	00018e02 	andeq	r8, r1, r2, lsl #28
 104:	00000014 	andeq	r0, r0, r4, lsl r0
 108:	000000ac 	andeq	r0, r0, ip, lsr #1
 10c:	00008334 	andeq	r8, r0, r4, lsr r3
 110:	000000c0 	andeq	r0, r0, r0, asr #1
 114:	8e040e42 	cdphi	14, 0, cr0, cr4, cr2, {2}
 118:	100e4201 	andne	r4, lr, r1, lsl #4
 11c:	0000000c 	andeq	r0, r0, ip
 120:	ffffffff 			; <UNDEFINED> instruction: 0xffffffff
 124:	7c020001 	stcvc	0, cr0, [r2], {1}
 128:	000d0c0e 	andeq	r0, sp, lr, lsl #24
 12c:	0000000c 	andeq	r0, r0, ip
 130:	0000011c 	andeq	r0, r0, ip, lsl r1
 134:	000083f4 	strdeq	r8, [r0], -r4
 138:	00000024 	andeq	r0, r0, r4, lsr #32
 13c:	00000014 	andeq	r0, r0, r4, lsl r0
 140:	0000011c 	andeq	r0, r0, ip, lsl r1
 144:	00008418 	andeq	r8, r0, r8, lsl r4
 148:	0000007c 	andeq	r0, r0, ip, ror r0
 14c:	83080e42 	movwhi	r0, #36418	; 0x8e42
 150:	00018e02 	andeq	r8, r1, r2, lsl #28
 154:	0000000c 	andeq	r0, r0, ip
 158:	0000011c 	andeq	r0, r0, ip, lsl r1
 15c:	00008494 	muleq	r0, r4, r4
 160:	00000008 	andeq	r0, r0, r8
 164:	00000010 	andeq	r0, r0, r0, lsl r0
 168:	0000011c 	andeq	r0, r0, ip, lsl r1
 16c:	0000849c 	muleq	r0, ip, r4
 170:	00000098 	muleq	r0, r8, r0
 174:	00100e42 	andseq	r0, r0, r2, asr #28
 178:	00000014 	andeq	r0, r0, r4, lsl r0
 17c:	0000011c 	andeq	r0, r0, ip, lsl r1
 180:	00008534 	andeq	r8, r0, r4, lsr r5
 184:	00000020 	andeq	r0, r0, r0, lsr #32
 188:	83080e42 	movwhi	r0, #36418	; 0x8e42
 18c:	00018e02 	andeq	r8, r1, r2, lsl #28
 190:	00000014 	andeq	r0, r0, r4, lsl r0
 194:	0000011c 	andeq	r0, r0, ip, lsl r1
 198:	00008554 	andeq	r8, r0, r4, asr r5
 19c:	000000b0 	strheq	r0, [r0], -r0	; <UNPREDICTABLE>
 1a0:	8e040e42 	cdphi	14, 0, cr0, cr4, cr2, {2}
 1a4:	180e4201 	stmdane	lr, {r0, r9, lr}
 1a8:	00000014 	andeq	r0, r0, r4, lsl r0
 1ac:	0000011c 	andeq	r0, r0, ip, lsl r1
 1b0:	00008604 	andeq	r8, r0, r4, lsl #12
 1b4:	00000100 	andeq	r0, r0, r0, lsl #2
 1b8:	8e040e42 	cdphi	14, 0, cr0, cr4, cr2, {2}
 1bc:	300e4201 	andcc	r4, lr, r1, lsl #4
 1c0:	0000000c 	andeq	r0, r0, ip
 1c4:	0000011c 	andeq	r0, r0, ip, lsl r1
 1c8:	00008704 	andeq	r8, r0, r4, lsl #14
 1cc:	00000018 	andeq	r0, r0, r8, lsl r0
 1d0:	00000014 	andeq	r0, r0, r4, lsl r0
 1d4:	0000011c 	andeq	r0, r0, ip, lsl r1
 1d8:	0000871c 	andeq	r8, r0, ip, lsl r7
 1dc:	000000d8 	ldrdeq	r0, [r0], -r8
 1e0:	83080e42 	movwhi	r0, #36418	; 0x8e42
 1e4:	00018e02 	andeq	r8, r1, r2, lsl #28
 1e8:	00000014 	andeq	r0, r0, r4, lsl r0
 1ec:	0000011c 	andeq	r0, r0, ip, lsl r1
 1f0:	000087f4 	strdeq	r8, [r0], -r4
 1f4:	000000ec 	andeq	r0, r0, ip, ror #1
 1f8:	83080e42 	movwhi	r0, #36418	; 0x8e42
 1fc:	00018e02 	andeq	r8, r1, r2, lsl #28
 200:	00000014 	andeq	r0, r0, r4, lsl r0
 204:	0000011c 	andeq	r0, r0, ip, lsl r1
 208:	000088e0 	andeq	r8, r0, r0, ror #17
 20c:	0000000c 	andeq	r0, r0, ip
 210:	83080e42 	movwhi	r0, #36418	; 0x8e42
 214:	00018e02 	andeq	r8, r1, r2, lsl #28
 218:	00000014 	andeq	r0, r0, r4, lsl r0
 21c:	0000011c 	andeq	r0, r0, ip, lsl r1
 220:	000088ec 	andeq	r8, r0, ip, ror #17
 224:	0000003c 	andeq	r0, r0, ip, lsr r0
 228:	8e040e42 	cdphi	14, 0, cr0, cr4, cr2, {2}
 22c:	100e4201 	andne	r4, lr, r1, lsl #4
 230:	0000000c 	andeq	r0, r0, ip
 234:	0000011c 	andeq	r0, r0, ip, lsl r1
 238:	00008928 	andeq	r8, r0, r8, lsr #18
 23c:	000000dc 	ldrdeq	r0, [r0], -ip
 240:	0000000c 	andeq	r0, r0, ip
 244:	0000011c 	andeq	r0, r0, ip, lsl r1
 248:	00008a04 	andeq	r8, r0, r4, lsl #20
 24c:	000000b8 	strheq	r0, [r0], -r8
 250:	00000014 	andeq	r0, r0, r4, lsl r0
 254:	0000011c 	andeq	r0, r0, ip, lsl r1
 258:	00008abc 			; <UNDEFINED> instruction: 0x00008abc
 25c:	000000b4 	strheq	r0, [r0], -r4
 260:	8e040e42 	cdphi	14, 0, cr0, cr4, cr2, {2}
 264:	100e4201 	andne	r4, lr, r1, lsl #4
 268:	0000000c 	andeq	r0, r0, ip
 26c:	ffffffff 			; <UNDEFINED> instruction: 0xffffffff
 270:	7c020001 	stcvc	0, cr0, [r2], {1}
 274:	000d0c0e 	andeq	r0, sp, lr, lsl #24
 278:	0000000c 	andeq	r0, r0, ip
 27c:	00000268 	andeq	r0, r0, r8, ror #4
 280:	00008b70 	andeq	r8, r0, r0, ror fp
 284:	0000003c 	andeq	r0, r0, ip, lsr r0
 288:	0000000c 	andeq	r0, r0, ip
 28c:	00000268 	andeq	r0, r0, r8, ror #4
 290:	00008bac 	andeq	r8, r0, ip, lsr #23
 294:	00000054 	andeq	r0, r0, r4, asr r0
 298:	00000014 	andeq	r0, r0, r4, lsl r0
 29c:	00000268 	andeq	r0, r0, r8, ror #4
 2a0:	00008c00 	andeq	r8, r0, r0, lsl #24
 2a4:	0000001c 	andeq	r0, r0, ip, lsl r0
 2a8:	8e040e42 	cdphi	14, 0, cr0, cr4, cr2, {2}
 2ac:	100e4201 	andne	r4, lr, r1, lsl #4
 2b0:	0000000c 	andeq	r0, r0, ip
 2b4:	00000268 	andeq	r0, r0, r8, ror #4
 2b8:	00008c1c 	andeq	r8, r0, ip, lsl ip
 2bc:	00000004 	andeq	r0, r0, r4
 2c0:	0000000c 	andeq	r0, r0, ip
 2c4:	00000268 	andeq	r0, r0, r8, ror #4
 2c8:	00008c20 	andeq	r8, r0, r0, lsr #24
 2cc:	0000003c 	andeq	r0, r0, ip, lsr r0
 2d0:	00000014 	andeq	r0, r0, r4, lsl r0
 2d4:	00000268 	andeq	r0, r0, r8, ror #4
 2d8:	00008c5c 	andeq	r8, r0, ip, asr ip
 2dc:	0000001c 	andeq	r0, r0, ip, lsl r0
 2e0:	8e040e42 	cdphi	14, 0, cr0, cr4, cr2, {2}
 2e4:	100e4201 	andne	r4, lr, r1, lsl #4
